GCASM List File (GCBASIC 0.98.<<>> 2019-04-02  (Windows 32 bit))

Symbols:
-X 	EQU 	30
-Y 	EQU 	26
-Z 	EQU 	18
ACBG 	EQU 	6
ACD 	EQU 	7
ACI 	EQU 	4
ACIC 	EQU 	2
ACIE 	EQU 	3
ACIS0 	EQU 	0
ACIS1 	EQU 	1
ACME 	EQU 	6
ACO 	EQU 	5
ACSR 	EQU 	48
ADATE 	EQU 	5
ADC0D 	EQU 	0
ADC1D 	EQU 	1
ADC2D 	EQU 	2
ADC3D 	EQU 	3
ADC4D 	EQU 	4
ADC5D 	EQU 	5
ADCH 	EQU 	121
ADCH0 	EQU 	0
ADCH1 	EQU 	1
ADCH2 	EQU 	2
ADCH3 	EQU 	3
ADCH4 	EQU 	4
ADCH5 	EQU 	5
ADCH6 	EQU 	6
ADCH7 	EQU 	7
ADCL 	EQU 	120
ADCL0 	EQU 	0
ADCL1 	EQU 	1
ADCL2 	EQU 	2
ADCL3 	EQU 	3
ADCL4 	EQU 	4
ADCL5 	EQU 	5
ADCL6 	EQU 	6
ADCL7 	EQU 	7
ADCSRA 	EQU 	122
ADCSRB 	EQU 	123
ADEN 	EQU 	7
ADIE 	EQU 	3
ADIF 	EQU 	4
ADLAR 	EQU 	5
ADMUX 	EQU 	124
ADPS0 	EQU 	0
ADPS1 	EQU 	1
ADPS2 	EQU 	2
ADSC 	EQU 	6
ADTS0 	EQU 	0
ADTS1 	EQU 	1
ADTS2 	EQU 	2
AIN0D 	EQU 	0
AIN1D 	EQU 	1
AS2 	EQU 	5
ASSR 	EQU 	182
BASPROGRAMEND 	EQU 	301
BASPROGRAMSTART 	EQU 	52
BLBSET 	EQU 	3
BODS 	EQU 	6
BODSE 	EQU 	5
BORF 	EQU 	2
BOX 	EQU 	303
C 	EQU 	0
CAL0 	EQU 	0
CAL1 	EQU 	1
CAL2 	EQU 	2
CAL3 	EQU 	3
CAL4 	EQU 	4
CAL5 	EQU 	5
CAL6 	EQU 	6
CAL7 	EQU 	7
CHARCODE 	EQU 	307
CHARCOL 	EQU 	308
CHARCOL_H 	EQU 	309
CHARLOCX 	EQU 	310
CHARLOCX_H 	EQU 	311
CHARLOCY 	EQU 	312
CHARLOCY_H 	EQU 	313
CLKPCE 	EQU 	7
CLKPR 	EQU 	97
CLKPS0 	EQU 	0
CLKPS1 	EQU 	1
CLKPS2 	EQU 	2
CLKPS3 	EQU 	3
COLSPERFONT 	EQU 	314
COM0A0 	EQU 	6
COM0A1 	EQU 	7
COM0B0 	EQU 	4
COM0B1 	EQU 	5
COM1A0 	EQU 	6
COM1A1 	EQU 	7
COM1B0 	EQU 	4
COM1B1 	EQU 	5
COM2A0 	EQU 	6
COM2A1 	EQU 	7
COM2B0 	EQU 	4
COM2B1 	EQU 	5
CPHA 	EQU 	2
CPOL 	EQU 	3
CS00 	EQU 	0
CS01 	EQU 	1
CS02 	EQU 	2
CS10 	EQU 	0
CS11 	EQU 	1
CS12 	EQU 	2
CS20 	EQU 	0
CS21 	EQU 	1
CS22 	EQU 	2
CURRCHARCOL 	EQU 	315
CURRCHARROW 	EQU 	316
CURRCHARVAL 	EQU 	317
DDB0 	EQU 	0
DDB1 	EQU 	1
DDB2 	EQU 	2
DDB3 	EQU 	3
DDB4 	EQU 	4
DDB5 	EQU 	5
DDB6 	EQU 	6
DDB7 	EQU 	7
DDC0 	EQU 	0
DDC1 	EQU 	1
DDC2 	EQU 	2
DDC3 	EQU 	3
DDC4 	EQU 	4
DDC5 	EQU 	5
DDC6 	EQU 	6
DDD0 	EQU 	0
DDD1 	EQU 	1
DDD2 	EQU 	2
DDD3 	EQU 	3
DDD4 	EQU 	4
DDD5 	EQU 	5
DDD6 	EQU 	6
DDD7 	EQU 	7
DDRB 	EQU 	4
DDRC 	EQU 	7
DDRD 	EQU 	10
DELAYTEMP 	EQU 	r25
DELAYTEMP2 	EQU 	r26
DELAYUS2 	EQU 	1743
DELAY_MS 	EQU 	1079
DIDR0 	EQU 	126
DIDR1 	EQU 	127
DMS_INNER 	EQU 	1082
DMS_OUTER 	EQU 	1081
DMS_START 	EQU 	1080
DOR0 	EQU 	3
DORD 	EQU 	5
DRAWBMP 	EQU 	574
DRAWLINE 	EQU 	318
DRAWLINE_H 	EQU 	319
EEAR0 	EQU 	0
EEAR1 	EQU 	1
EEAR2 	EQU 	2
EEAR3 	EQU 	3
EEAR4 	EQU 	4
EEAR5 	EQU 	5
EEAR6 	EQU 	6
EEAR7 	EQU 	7
EEAR8 	EQU 	0
EEAR9 	EQU 	1
EEARH 	EQU 	34
EEARL 	EQU 	33
EECR 	EQU 	31
EEDR 	EQU 	32
EEDR0 	EQU 	0
EEDR1 	EQU 	1
EEDR2 	EQU 	2
EEDR3 	EQU 	3
EEDR4 	EQU 	4
EEDR5 	EQU 	5
EEDR6 	EQU 	6
EEDR7 	EQU 	7
EEMPE 	EQU 	2
EEPE 	EQU 	1
EEPM0 	EQU 	4
EEPM1 	EQU 	5
EERE 	EQU 	0
EERIE 	EQU 	3
EICRA 	EQU 	105
EIFR 	EQU 	28
EIMSK 	EQU 	29
ELSE16_1 	EQU 	1453
ENDIF1 	EQU 	1618
ENDIF10 	EQU 	822
ENDIF11 	EQU 	856
ENDIF12 	EQU 	1058
ENDIF13 	EQU 	1078
ENDIF14 	EQU 	1361
ENDIF15 	EQU 	1408
ENDIF16 	EQU 	1488
ENDIF17 	EQU 	1527
ENDIF18 	EQU 	1591
ENDIF19 	EQU 	1598
ENDIF2 	EQU 	1638
ENDIF20 	EQU 	1605
ENDIF21 	EQU 	1561
ENDIF3 	EQU 	1711
ENDIF4 	EQU 	339
ENDIF5 	EQU 	375
ENDIF6 	EQU 	399
ENDIF7 	EQU 	474
ENDIF8 	EQU 	498
ENDIF9 	EQU 	573
EXCLK 	EQU 	6
EXTREF 	EQU 	1
EXTRF 	EQU 	1
FE0 	EQU 	4
FOC0A 	EQU 	7
FOC0B 	EQU 	6
FOC1A 	EQU 	7
FOC1B 	EQU 	6
FOC2A 	EQU 	7
FOC2B 	EQU 	6
GLCDBACKGROUND 	EQU 	320
GLCDBACKGROUND_H 	EQU 	321
GLCDCLS_ILI9341 	EQU 	1091
GLCDCOLOUR 	EQU 	322
GLCDCOLOUR_H 	EQU 	323
GLCDDEVICEHEIGHT 	EQU 	324
GLCDDEVICEHEIGHT_H 	EQU 	325
GLCDDEVICEWIDTH 	EQU 	326
GLCDDEVICEWIDTH_H 	EQU 	327
GLCDDRAWCHAR_ILI9341 	EQU 	1279
GLCDFNTDEFAULT 	EQU 	328
GLCDFNTDEFAULTSIZE 	EQU 	329
GLCDFONTWIDTH 	EQU 	330
GLCDFOREGROUND 	EQU 	331
GLCDFOREGROUND_H 	EQU 	332
GLCDPRINT4 	EQU 	1606
GLCDPRINTLEN 	EQU 	333
GLCDPRINTLOC 	EQU 	334
GLCDPRINTLOC_H 	EQU 	335
GLCDPRINT_STRING_COUNTER 	EQU 	336
GLCDROTATESTATE 	EQU 	337
GLCDTEMP 	EQU 	338
GLCDTEMP_H 	EQU 	339
GLCDX 	EQU 	340
GLCDX_H 	EQU 	341
GLCDY 	EQU 	342
GLCDY_H 	EQU 	343
GLCD_YORDINATE 	EQU 	344
GLCD_YORDINATE_H 	EQU 	345
GPIOR0 	EQU 	30
GPIOR00 	EQU 	0
GPIOR01 	EQU 	1
GPIOR02 	EQU 	2
GPIOR03 	EQU 	3
GPIOR04 	EQU 	4
GPIOR05 	EQU 	5
GPIOR06 	EQU 	6
GPIOR07 	EQU 	7
GPIOR1 	EQU 	42
GPIOR10 	EQU 	0
GPIOR11 	EQU 	1
GPIOR12 	EQU 	2
GPIOR13 	EQU 	3
GPIOR14 	EQU 	4
GPIOR15 	EQU 	5
GPIOR16 	EQU 	6
GPIOR17 	EQU 	7
GPIOR2 	EQU 	43
GPIOR20 	EQU 	0
GPIOR21 	EQU 	1
GPIOR22 	EQU 	2
GPIOR23 	EQU 	3
GPIOR24 	EQU 	4
GPIOR25 	EQU 	5
GPIOR26 	EQU 	6
GPIOR27 	EQU 	7
GTCCR 	EQU 	35
H 	EQU 	5
I 	EQU 	7
ICES1 	EQU 	6
ICF1 	EQU 	5
ICIE1 	EQU 	5
ICNC1 	EQU 	7
ICR1H 	EQU 	135
ICR1L 	EQU 	134
ILI9341SENDBYTE 	EQU 	346
ILI9341SENDWORD 	EQU 	347
ILI9341SENDWORD_H 	EQU 	348
INITGLCD_ILI9341 	EQU 	1716
INITGLCD_SSD1289 	EQU 	2131
INITSYS 	EQU 	2132
INITUNO 	EQU 	2139
INT0 	EQU 	0
INT1 	EQU 	1
INTF0 	EQU 	0
INTF1 	EQU 	1
ISC00 	EQU 	0
ISC01 	EQU 	1
ISC10 	EQU 	2
ISC11 	EQU 	3
IVCE 	EQU 	0
IVSEL 	EQU 	1
LINECOLOUR 	EQU 	349
LINECOLOUR_H 	EQU 	350
LINEX1 	EQU 	351
LINEX1_H 	EQU 	352
LINEX2 	EQU 	353
LINEX2_H 	EQU 	354
LINEY1 	EQU 	355
LINEY1_H 	EQU 	356
LINEY2 	EQU 	357
LINEY2_H 	EQU 	358
LOCALCHARCODE 	EQU 	359
LOCALCHARCODE_H 	EQU 	360
MCUCR 	EQU 	53
MCUSR 	EQU 	52
MPCM0 	EQU 	0
MSTR 	EQU 	4
MUX0 	EQU 	0
MUX1 	EQU 	1
MUX2 	EQU 	2
MUX3 	EQU 	3
N 	EQU 	2
OBJHEIGHT 	EQU 	361
OBJHEIGHT_H 	EQU 	362
OBJWIDTH 	EQU 	363
OBJWIDTH_H 	EQU 	364
OCF0A 	EQU 	1
OCF0B 	EQU 	2
OCF1A 	EQU 	1
OCF1B 	EQU 	2
OCF2A 	EQU 	1
OCF2B 	EQU 	2
OCIE0A 	EQU 	1
OCIE0B 	EQU 	2
OCIE1A 	EQU 	1
OCIE1B 	EQU 	2
OCIE2A 	EQU 	1
OCIE2B 	EQU 	2
OCR0A 	EQU 	39
OCR0A_0 	EQU 	0
OCR0A_1 	EQU 	1
OCR0A_2 	EQU 	2
OCR0A_3 	EQU 	3
OCR0A_4 	EQU 	4
OCR0A_5 	EQU 	5
OCR0A_6 	EQU 	6
OCR0A_7 	EQU 	7
OCR0B 	EQU 	40
OCR0B_0 	EQU 	0
OCR0B_1 	EQU 	1
OCR0B_2 	EQU 	2
OCR0B_3 	EQU 	3
OCR0B_4 	EQU 	4
OCR0B_5 	EQU 	5
OCR0B_6 	EQU 	6
OCR0B_7 	EQU 	7
OCR1AH 	EQU 	137
OCR1AL 	EQU 	136
OCR1BH 	EQU 	139
OCR1BL 	EQU 	138
OCR2A 	EQU 	179
OCR2AUB 	EQU 	3
OCR2A_0 	EQU 	0
OCR2A_1 	EQU 	1
OCR2A_2 	EQU 	2
OCR2A_3 	EQU 	3
OCR2A_4 	EQU 	4
OCR2A_5 	EQU 	5
OCR2A_6 	EQU 	6
OCR2A_7 	EQU 	7
OCR2B 	EQU 	180
OCR2BUB 	EQU 	2
OCR2B_0 	EQU 	0
OCR2B_1 	EQU 	1
OCR2B_2 	EQU 	2
OCR2B_3 	EQU 	3
OCR2B_4 	EQU 	4
OCR2B_5 	EQU 	5
OCR2B_6 	EQU 	6
OCR2B_7 	EQU 	7
OLDGLCDFONTWIDTH 	EQU 	365
OLEDFONT1DATA 	EQU 	2142
OLEDFONT1DATA_H 	EQU 	2366
OLEDFONT1INDEX 	EQU 	2380
OLEDFONT1INDEX_H 	EQU 	2440
OLEDFONT2 	EQU 	2500
OLEDFONT2_H 	EQU 	3482
OSCCAL 	EQU 	102
OSCCAL0 	EQU 	0
OSCCAL1 	EQU 	1
OSCCAL2 	EQU 	2
OSCCAL3 	EQU 	3
OSCCAL4 	EQU 	4
OSCCAL5 	EQU 	5
OSCCAL6 	EQU 	6
OSCCAL7 	EQU 	7
PB0 	EQU 	0
PB1 	EQU 	1
PB2 	EQU 	2
PB3 	EQU 	3
PB4 	EQU 	4
PB5 	EQU 	5
PB6 	EQU 	6
PB7 	EQU 	7
PC0 	EQU 	0
PC1 	EQU 	1
PC2 	EQU 	2
PC3 	EQU 	3
PC4 	EQU 	4
PC5 	EQU 	5
PC6 	EQU 	6
PCICR 	EQU 	104
PCIE0 	EQU 	0
PCIE1 	EQU 	1
PCIE2 	EQU 	2
PCIF0 	EQU 	0
PCIF1 	EQU 	1
PCIF2 	EQU 	2
PCIFR 	EQU 	27
PCINT0 	EQU 	0
PCINT1 	EQU 	1
PCINT10 	EQU 	2
PCINT11 	EQU 	3
PCINT12 	EQU 	4
PCINT13 	EQU 	5
PCINT14 	EQU 	6
PCINT16 	EQU 	0
PCINT17 	EQU 	1
PCINT18 	EQU 	2
PCINT19 	EQU 	3
PCINT2 	EQU 	2
PCINT20 	EQU 	4
PCINT21 	EQU 	5
PCINT22 	EQU 	6
PCINT23 	EQU 	7
PCINT3 	EQU 	3
PCINT4 	EQU 	4
PCINT5 	EQU 	5
PCINT6 	EQU 	6
PCINT7 	EQU 	7
PCINT8 	EQU 	0
PCINT9 	EQU 	1
PCMSK0 	EQU 	107
PCMSK1 	EQU 	108
PCMSK2 	EQU 	109
PD0 	EQU 	0
PD1 	EQU 	1
PD2 	EQU 	2
PD3 	EQU 	3
PD4 	EQU 	4
PD5 	EQU 	5
PD6 	EQU 	6
PD7 	EQU 	7
PGERS 	EQU 	1
PGWRT 	EQU 	2
PINB 	EQU 	3
PINB0 	EQU 	0
PINB1 	EQU 	1
PINB2 	EQU 	2
PINB3 	EQU 	3
PINB4 	EQU 	4
PINB5 	EQU 	5
PINB6 	EQU 	6
PINB7 	EQU 	7
PINC 	EQU 	6
PINC0 	EQU 	0
PINC1 	EQU 	1
PINC2 	EQU 	2
PINC3 	EQU 	3
PINC4 	EQU 	4
PINC5 	EQU 	5
PINC6 	EQU 	6
PIND 	EQU 	9
PIND0 	EQU 	0
PIND1 	EQU 	1
PIND2 	EQU 	2
PIND3 	EQU 	3
PIND4 	EQU 	4
PIND5 	EQU 	5
PIND6 	EQU 	6
PIND7 	EQU 	7
PIXELRGB 	EQU 	366
PIXELRGB_H 	EQU 	367
PORF 	EQU 	0
PORTB 	EQU 	5
PORTB0 	EQU 	0
PORTB1 	EQU 	1
PORTB2 	EQU 	2
PORTB3 	EQU 	3
PORTB4 	EQU 	4
PORTB5 	EQU 	5
PORTB6 	EQU 	6
PORTB7 	EQU 	7
PORTC 	EQU 	8
PORTC0 	EQU 	0
PORTC1 	EQU 	1
PORTC2 	EQU 	2
PORTC3 	EQU 	3
PORTC4 	EQU 	4
PORTC5 	EQU 	5
PORTC6 	EQU 	6
PORTD 	EQU 	11
PORTD0 	EQU 	0
PORTD1 	EQU 	1
PORTD2 	EQU 	2
PORTD3 	EQU 	3
PORTD4 	EQU 	4
PORTD5 	EQU 	5
PORTD6 	EQU 	6
PORTD7 	EQU 	7
PRADC 	EQU 	0
PRINTLOCX 	EQU 	368
PRINTLOCX_H 	EQU 	369
PRINTLOCY 	EQU 	370
PRINTLOCY_H 	EQU 	371
PRR 	EQU 	100
PRSPI 	EQU 	2
PRTIM0 	EQU 	5
PRTIM1 	EQU 	3
PRTIM2 	EQU 	6
PRTWI 	EQU 	7
PRUSART0 	EQU 	1
PSET_ILI9341 	EQU 	3496
PSR2 	EQU 	1
PSRASY 	EQU 	1
PSRSYNC 	EQU 	0
PUD 	EQU 	4
RAMEND 	EQU 	2303
REFS0 	EQU 	6
REFS1 	EQU 	7
ROWSPERFONT 	EQU 	372
RWWSB 	EQU 	6
RWWSRE 	EQU 	4
RXB80 	EQU 	1
RXC0 	EQU 	7
RXCIE0 	EQU 	7
RXEN0 	EQU 	4
S 	EQU 	4
SCE16FALSE 	EQU 	3719
SCLT16FALSE 	EQU 	3729
SCLT16TRUE 	EQU 	3728
SE 	EQU 	0
SELECTEDTABLE 	EQU 	373
SELECTEDTABLE_H 	EQU 	374
SELFPRGEN 	EQU 	0
SENDCOMMAND_ILI9341 	EQU 	3538
SENDDATA_ILI9341 	EQU 	3568
SENDWORD_ILI9341 	EQU 	3598
SETADDRESSWINDOW_ILI9341 	EQU 	3656
SM0 	EQU 	1
SM1 	EQU 	2
SM2 	EQU 	3
SMCR 	EQU 	51
SPCR 	EQU 	44
SPDR 	EQU 	46
SPDR0 	EQU 	0
SPDR1 	EQU 	1
SPDR2 	EQU 	2
SPDR3 	EQU 	3
SPDR4 	EQU 	4
SPDR5 	EQU 	5
SPDR6 	EQU 	6
SPDR7 	EQU 	7
SPE 	EQU 	6
SPH 	EQU 	62
SPI2X 	EQU 	0
SPIE 	EQU 	7
SPIF 	EQU 	7
SPL 	EQU 	61
SPMCSR 	EQU 	55
SPMIE 	EQU 	7
SPR0 	EQU 	0
SPR1 	EQU 	1
SPSR 	EQU 	45
SREG 	EQU 	63
SREG_C 	EQU 	0
SREG_H 	EQU 	5
SREG_I 	EQU 	7
SREG_N 	EQU 	2
SREG_S 	EQU 	4
SREG_T 	EQU 	6
SREG_V 	EQU 	3
SREG_Z 	EQU 	1
STRINGPOINTER 	EQU 	375
STRINGTABLE2 	EQU 	3764
STRINGTABLE3 	EQU 	3768
STRINGTABLE4 	EQU 	3783
STRINGTABLE5 	EQU 	3809
SYSBITTEST 	EQU 	r5
SYSBYTETEMPA 	EQU 	r22
SYSBYTETEMPB 	EQU 	r28
SYSBYTETEMPX 	EQU 	r0
SYSCALCTEMPA 	EQU 	r22
SYSCALCTEMPB 	EQU 	r28
SYSCALCTEMPX 	EQU 	r0
SYSCOMPEQUAL 	EQU 	3708
SYSCOMPEQUAL16 	EQU 	3713
SYSCOMPLESSTHAN16 	EQU 	3720
SYSDIVMULTX 	EQU 	r2
SYSDIVMULTX_H 	EQU 	r3
SYSDOLOOP_E1 	EQU 	301
SYSDOLOOP_S1 	EQU 	300
SYSFORLOOP1 	EQU 	1638
SYSFORLOOP2 	EQU 	399
SYSFORLOOP3 	EQU 	498
SYSFORLOOP4 	EQU 	822
SYSFORLOOP5 	EQU 	856
SYSFORLOOP6 	EQU 	1361
SYSFORLOOP7 	EQU 	1408
SYSFORLOOPEND1 	EQU 	1711
SYSFORLOOPEND2 	EQU 	474
SYSFORLOOPEND3 	EQU 	573
SYSFORLOOPEND4 	EQU 	1078
SYSFORLOOPEND5 	EQU 	1058
SYSFORLOOPEND6 	EQU 	1605
SYSFORLOOPEND7 	EQU 	1598
SYSLCDPRINTDATAHANDLER 	EQU 	376
SYSLCDPRINTDATAHANDLER_H 	EQU 	377
SYSMULTSUB16 	EQU 	3730
SYSREADA 	EQU 	r30
SYSREADA_H 	EQU 	r31
SYSREADSTRING 	EQU 	3740
SYSREADSTRINGPART 	EQU 	3747
SYSREPEATLOOP1 	EQU 	1146
SYSREPEATLOOP2 	EQU 	1152
SYSREPEATLOOPEND1 	EQU 	1224
SYSREPEATLOOPEND2 	EQU 	1217
SYSREPEATTEMP1 	EQU 	378
SYSREPEATTEMP2 	EQU 	379
SYSREPEATTEMP2_H 	EQU 	380
SYSSELECT1CASE1 	EQU 	580
SYSSELECT1CASE2 	EQU 	634
SYSSELECT1CASE3 	EQU 	674
SYSSELECT1CASE4 	EQU 	714
SYSSELECT1CASE5 	EQU 	754
SYSSELECT2CASE1 	EQU 	867
SYSSELECT2CASE2 	EQU 	894
SYSSELECT2CASE3 	EQU 	914
SYSSELECT2CASE4 	EQU 	934
SYSSELECT2CASE5 	EQU 	954
SYSSELECT3CASE1 	EQU 	1290
SYSSELECT3CASE2 	EQU 	1326
SYSSELECT4CASE1 	EQU 	1377
SYSSELECT4CASE2 	EQU 	1389
SYSSELECTEND1 	EQU 	793
SYSSELECTEND2 	EQU 	973
SYSSELECTEND3 	EQU 	1353
SYSSELECTEND4 	EQU 	1400
SYSSTRINGA 	EQU 	r26
SYSSTRINGA_H 	EQU 	r27
SYSSTRINGB 	EQU 	r28
SYSSTRINGB_H 	EQU 	r29
SYSSTRINGLENGTH 	EQU 	r25
SYSSTRINGPARAM1 	EQU 	256
SYSSTRINGREAD 	EQU 	3756
SYSSTRINGREADCHECK 	EQU 	3753
SYSSTRINGTABLES 	EQU 	3764
SYSTEMP1 	EQU 	r6
SYSTEMP1_H 	EQU 	r7
SYSTEMP2 	EQU 	r8
SYSTEMP2_H 	EQU 	r9
SYSTEMP3 	EQU 	r16
SYSTEMP4 	EQU 	r4
SYSVALUECOPY 	EQU 	r21
SYSWAITTEMPMS 	EQU 	r29
SYSWAITTEMPMS_H 	EQU 	r30
SYSWAITTEMPUS 	EQU 	r27
SYSWAITTEMPUS_H 	EQU 	r28
SYSWORDTEMPA 	EQU 	r22
SYSWORDTEMPA_H 	EQU 	r23
SYSWORDTEMPB 	EQU 	r28
SYSWORDTEMPB_H 	EQU 	r29
SYSWORDTEMPX 	EQU 	r0
SYSWORDTEMPX_H 	EQU 	r1
T 	EQU 	6
TABLEIMAGE1 	EQU 	3815
TABLEIMAGE1_H 	EQU 	8230
TABLEIMAGE2 	EQU 	12646
TABLEIMAGE3 	EQU 	12657
TABLEIMAGE4 	EQU 	12668
TABLEIMAGE5 	EQU 	12679
TABLEOLEDFONT1DATA 	EQU 	2155
TABLEOLEDFONT1DATA_H 	EQU 	2379
TABLEOLEDFONT1INDEX 	EQU 	2391
TABLEOLEDFONT1INDEX_H 	EQU 	2451
TABLEOLEDFONT2 	EQU 	2513
TABLEOLEDFONT2_H 	EQU 	3495
TABLEREADPOSITION 	EQU 	381
TABLEREADPOSITION_H 	EQU 	382
TABLETABLEIMAGE1 	EQU 	3828
TABLETABLEIMAGE1_H 	EQU 	8244
TABLETABLEIMAGE2 	EQU 	12657
TABLETABLEIMAGE3 	EQU 	12668
TABLETABLEIMAGE4 	EQU 	12679
TABLETABLEIMAGE5 	EQU 	12690
TCCR0A 	EQU 	36
TCCR0B 	EQU 	37
TCCR1A 	EQU 	128
TCCR1B 	EQU 	129
TCCR1C 	EQU 	130
TCCR2A 	EQU 	176
TCCR2B 	EQU 	177
TCN2UB 	EQU 	4
TCNT0 	EQU 	38
TCNT0_0 	EQU 	0
TCNT0_1 	EQU 	1
TCNT0_2 	EQU 	2
TCNT0_3 	EQU 	3
TCNT0_4 	EQU 	4
TCNT0_5 	EQU 	5
TCNT0_6 	EQU 	6
TCNT0_7 	EQU 	7
TCNT1H 	EQU 	133
TCNT1L 	EQU 	132
TCNT2 	EQU 	178
TCNT2_0 	EQU 	0
TCNT2_1 	EQU 	1
TCNT2_2 	EQU 	2
TCNT2_3 	EQU 	3
TCNT2_4 	EQU 	4
TCNT2_5 	EQU 	5
TCNT2_6 	EQU 	6
TCNT2_7 	EQU 	7
TCR2AUB 	EQU 	1
TCR2BUB 	EQU 	0
TFTX 	EQU 	383
TFTXPOS 	EQU 	385
TFTXPOS_H 	EQU 	386
TFTX_H 	EQU 	384
TFTY 	EQU 	387
TFTYPOS 	EQU 	389
TFTYPOS_H 	EQU 	390
TFTY_H 	EQU 	388
TIFR0 	EQU 	21
TIFR1 	EQU 	22
TIFR2 	EQU 	23
TIMSK0 	EQU 	110
TIMSK1 	EQU 	111
TIMSK2 	EQU 	112
TOIE0 	EQU 	0
TOIE1 	EQU 	0
TOIE2 	EQU 	0
TOIE2A 	EQU 	0
TOV0 	EQU 	0
TOV1 	EQU 	0
TOV2 	EQU 	0
TSM 	EQU 	7
TWA0 	EQU 	1
TWA1 	EQU 	2
TWA2 	EQU 	3
TWA3 	EQU 	4
TWA4 	EQU 	5
TWA5 	EQU 	6
TWA6 	EQU 	7
TWAM0 	EQU 	1
TWAM1 	EQU 	2
TWAM2 	EQU 	3
TWAM3 	EQU 	4
TWAM4 	EQU 	5
TWAM5 	EQU 	6
TWAM6 	EQU 	7
TWAMR 	EQU 	189
TWAMR0 	EQU 	1
TWAMR1 	EQU 	2
TWAMR2 	EQU 	3
TWAMR3 	EQU 	4
TWAMR4 	EQU 	5
TWAMR5 	EQU 	6
TWAMR6 	EQU 	7
TWAR 	EQU 	186
TWBR 	EQU 	184
TWBR0 	EQU 	0
TWBR1 	EQU 	1
TWBR2 	EQU 	2
TWBR3 	EQU 	3
TWBR4 	EQU 	4
TWBR5 	EQU 	5
TWBR6 	EQU 	6
TWBR7 	EQU 	7
TWCR 	EQU 	188
TWD0 	EQU 	0
TWD1 	EQU 	1
TWD2 	EQU 	2
TWD3 	EQU 	3
TWD4 	EQU 	4
TWD5 	EQU 	5
TWD6 	EQU 	6
TWD7 	EQU 	7
TWDR 	EQU 	187
TWEA 	EQU 	6
TWEN 	EQU 	2
TWGCE 	EQU 	0
TWIE 	EQU 	0
TWINT 	EQU 	7
TWPS0 	EQU 	0
TWPS1 	EQU 	1
TWS3 	EQU 	3
TWS4 	EQU 	4
TWS5 	EQU 	5
TWS6 	EQU 	6
TWS7 	EQU 	7
TWSR 	EQU 	185
TWSTA 	EQU 	5
TWSTO 	EQU 	4
TWWC 	EQU 	3
TXB80 	EQU 	0
TXC0 	EQU 	6
TXCIE0 	EQU 	6
TXEN0 	EQU 	3
U2X0 	EQU 	1
UBRR0H 	EQU 	197
UBRR0L 	EQU 	196
UBRR10 	EQU 	2
UBRR11 	EQU 	3
UBRR2 	EQU 	2
UBRR3 	EQU 	3
UBRR4 	EQU 	4
UBRR5 	EQU 	5
UBRR6 	EQU 	6
UBRR7 	EQU 	7
UBRR8 	EQU 	0
UBRR9 	EQU 	1
UCPHA0 	EQU 	1
UCPOL0 	EQU 	0
UCSR0A 	EQU 	192
UCSR0B 	EQU 	193
UCSR0C 	EQU 	194
UCSZ00 	EQU 	1
UCSZ01 	EQU 	2
UCSZ02 	EQU 	2
UDORD0 	EQU 	2
UDR0 	EQU 	198
UDR0_0 	EQU 	0
UDR0_1 	EQU 	1
UDR0_2 	EQU 	2
UDR0_3 	EQU 	3
UDR0_4 	EQU 	4
UDR0_5 	EQU 	5
UDR0_6 	EQU 	6
UDR0_7 	EQU 	7
UDRE0 	EQU 	5
UDRIE0 	EQU 	5
UMSEL0 	EQU 	6
UMSEL00 	EQU 	6
UMSEL01 	EQU 	7
UMSEL1 	EQU 	7
UPE0 	EQU 	2
UPM00 	EQU 	4
UPM01 	EQU 	5
USBS0 	EQU 	3
V 	EQU 	3
WCOL 	EQU 	6
WDCE 	EQU 	4
WDE 	EQU 	3
WDIE 	EQU 	6
WDIF 	EQU 	7
WDP0 	EQU 	0
WDP1 	EQU 	1
WDP2 	EQU 	2
WDP3 	EQU 	5
WDRF 	EQU 	3
WDTCSR 	EQU 	96
WGM00 	EQU 	0
WGM01 	EQU 	1
WGM02 	EQU 	3
WGM10 	EQU 	0
WGM11 	EQU 	1
WGM12 	EQU 	3
WGM13 	EQU 	4
WGM20 	EQU 	0
WGM21 	EQU 	1
WGM22 	EQU 	3
X 	EQU 	28
X+ 	EQU 	29
XCOUNT 	EQU 	391
XCOUNT_H 	EQU 	392
Y 	EQU 	8
Y+ 	EQU 	25
YCOUNT 	EQU 	393
YCOUNT_H 	EQU 	394
Z 	EQU 	1
Z+ 	EQU 	17
_UBRR0 	EQU 	0
_UBRR1 	EQU 	1
_X1 	EQU 	395
_X1_H 	EQU 	396
_X2 	EQU 	397
_X2_H 	EQU 	398
_Y1 	EQU 	399
_Y1_H 	EQU 	400
_Y2 	EQU 	401
_Y2_H 	EQU 	402
rZ 	EQU 	0

Code:
Loc	Obj Code	Original Assembly

000000	C033	RJMP BASPROGRAMSTART

000002	9518	RETI

000004	9518	RETI

000006	9518	RETI

000008	9518	RETI

00000A	9518	RETI

00000C	9518	RETI

00000E	9518	RETI

000010	9518	RETI

000012	9518	RETI

000014	9518	RETI

000016	9518	RETI

000018	9518	RETI

00001A	9518	RETI

00001C	9518	RETI

00001E	9518	RETI

000020	9518	RETI

000022	9518	RETI

000024	9518	RETI

000026	9518	RETI

000028	9518	RETI

00002A	9518	RETI

00002C	9518	RETI

00002E	9518	RETI

000030	9518	RETI

000032	9518	RETI



		BASPROGRAMSTART
000034	E058	LDI SYSVALUECOPY,HIGH(RAMEND)
000035	BF5E	OUT SPH, SYSVALUECOPY
000036	EF5F	LDI SYSVALUECOPY,LOW(RAMEND)
000037	BF5D	OUT SPL, SYSVALUECOPY
000038	940E 0854	CALL INITSYS
00003A	940E 085B	CALL INITUNO
00003C	D677	RCALL INITGLCD_ILI9341
00003D	940E 0853	CALL INITGLCD_SSD1289

00003F	E15E	LDI SYSVALUECOPY,30
000040	9350 0181	STS TFTXPOS,SYSVALUECOPY
000042	E050	LDI SYSVALUECOPY,0
000043	9350 0182	STS TFTXPOS_H,SYSVALUECOPY
000045	E258	LDI SYSVALUECOPY,40
000046	9350 0185	STS TFTYPOS,SYSVALUECOPY
000048	E050	LDI SYSVALUECOPY,0
000049	9350 0186	STS TFTYPOS_H,SYSVALUECOPY
00004B	EE57	LDI SYSVALUECOPY,LOW(TABLEIMAGE1)
00004C	9350 0175	STS SELECTEDTABLE,SYSVALUECOPY
00004E	E05E	LDI SYSVALUECOPY,HIGH(TABLEIMAGE1)
00004F	9350 0176	STS SELECTEDTABLE_H,SYSVALUECOPY
000051	D1EC	RCALL DRAWBMP
000052	E052	LDI SYSVALUECOPY,2
000053	9350 0149	STS GLCDFNTDEFAULTSIZE,SYSVALUECOPY
000055	E550	LDI SYSVALUECOPY,80
000056	9350 0170	STS PRINTLOCX,SYSVALUECOPY
000058	E050	LDI SYSVALUECOPY,0
000059	9350 0171	STS PRINTLOCX_H,SYSVALUECOPY
00005B	EC58	LDI SYSVALUECOPY,200
00005C	9350 0172	STS PRINTLOCY,SYSVALUECOPY
00005E	E050	LDI SYSVALUECOPY,0
00005F	9350 0173	STS PRINTLOCY_H,SYSVALUECOPY
000061	E0C0	LDI SYSSTRINGB,LOW(SYSSTRINGPARAM1)
000062	E0D1	LDI SYSSTRINGB_H,HIGH(SYSSTRINGPARAM1)
000063	E6E8	LDI SYSREADA,LOW(STRINGTABLE2<<1)
000064	E1FD	LDI SYSREADA_H,HIGH(STRINGTABLE2<<1)
000065	940E 0E9C	CALL SYSREADSTRING
000067	E050	LDI SYSVALUECOPY,LOW(SYSSTRINGPARAM1)
000068	9350 0178	STS SYSLCDPRINTDATAHANDLER,SYSVALUECOPY
00006A	E051	LDI SYSVALUECOPY,HIGH(SYSSTRINGPARAM1)
00006B	9350 0179	STS SYSLCDPRINTDATAHANDLER_H,SYSVALUECOPY
00006D	E050	LDI SYSVALUECOPY,0
00006E	9350 015D	STS LINECOLOUR,SYSVALUECOPY
000070	EF58	LDI SYSVALUECOPY,248
000071	9350 015E	STS LINECOLOUR_H,SYSVALUECOPY
000073	D5D2	RCALL GLCDPRINT4
000074	E055	LDI SYSVALUECOPY,5
000075	9350 0170	STS PRINTLOCX,SYSVALUECOPY
000077	E050	LDI SYSVALUECOPY,0
000078	9350 0171	STS PRINTLOCX_H,SYSVALUECOPY
00007A	EE56	LDI SYSVALUECOPY,230
00007B	9350 0172	STS PRINTLOCY,SYSVALUECOPY
00007D	E050	LDI SYSVALUECOPY,0
00007E	9350 0173	STS PRINTLOCY_H,SYSVALUECOPY
000080	E0C0	LDI SYSSTRINGB,LOW(SYSSTRINGPARAM1)
000081	E0D1	LDI SYSSTRINGB_H,HIGH(SYSSTRINGPARAM1)
000082	E7E0	LDI SYSREADA,LOW(STRINGTABLE3<<1)
000083	E1FD	LDI SYSREADA_H,HIGH(STRINGTABLE3<<1)
000084	940E 0E9C	CALL SYSREADSTRING
000086	E050	LDI SYSVALUECOPY,LOW(SYSSTRINGPARAM1)
000087	9350 0178	STS SYSLCDPRINTDATAHANDLER,SYSVALUECOPY
000089	E051	LDI SYSVALUECOPY,HIGH(SYSSTRINGPARAM1)
00008A	9350 0179	STS SYSLCDPRINTDATAHANDLER_H,SYSVALUECOPY
00008C	E050	LDI SYSVALUECOPY,0
00008D	9350 015D	STS LINECOLOUR,SYSVALUECOPY
00008F	EF58	LDI SYSVALUECOPY,248
000090	9350 015E	STS LINECOLOUR_H,SYSVALUECOPY
000092	D5B3	RCALL GLCDPRINT4
000093	E052	LDI SYSVALUECOPY,2
000094	9350 015F	STS LINEX1,SYSVALUECOPY
000096	E050	LDI SYSVALUECOPY,0
000097	9350 0160	STS LINEX1_H,SYSVALUECOPY
000099	E052	LDI SYSVALUECOPY,2
00009A	9350 0163	STS LINEY1,SYSVALUECOPY
00009C	E050	LDI SYSVALUECOPY,0
00009D	9350 0164	STS LINEY1_H,SYSVALUECOPY
00009F	EE5D	LDI SYSVALUECOPY,237
0000A0	9350 0161	STS LINEX2,SYSVALUECOPY
0000A2	E050	LDI SYSVALUECOPY,0
0000A3	9350 0162	STS LINEX2_H,SYSVALUECOPY
0000A5	E35D	LDI SYSVALUECOPY,61
0000A6	9350 0165	STS LINEY2,SYSVALUECOPY
0000A8	E051	LDI SYSVALUECOPY,1
0000A9	9350 0166	STS LINEY2_H,SYSVALUECOPY
0000AB	E050	LDI SYSVALUECOPY,0
0000AC	9350 015D	STS LINECOLOUR,SYSVALUECOPY
0000AE	9350 015E	STS LINECOLOUR_H,SYSVALUECOPY
0000B0	D07E	RCALL BOX
0000B1	E051	LDI SYSVALUECOPY,1
0000B2	9350 015F	STS LINEX1,SYSVALUECOPY
0000B4	E050	LDI SYSVALUECOPY,0
0000B5	9350 0160	STS LINEX1_H,SYSVALUECOPY
0000B7	E051	LDI SYSVALUECOPY,1
0000B8	9350 0163	STS LINEY1,SYSVALUECOPY
0000BA	E050	LDI SYSVALUECOPY,0
0000BB	9350 0164	STS LINEY1_H,SYSVALUECOPY
0000BD	EE5E	LDI SYSVALUECOPY,238
0000BE	9350 0161	STS LINEX2,SYSVALUECOPY
0000C0	E050	LDI SYSVALUECOPY,0
0000C1	9350 0162	STS LINEX2_H,SYSVALUECOPY
0000C3	E35E	LDI SYSVALUECOPY,62
0000C4	9350 0165	STS LINEY2,SYSVALUECOPY
0000C6	E051	LDI SYSVALUECOPY,1
0000C7	9350 0166	STS LINEY2_H,SYSVALUECOPY
0000C9	E050	LDI SYSVALUECOPY,0
0000CA	9350 015D	STS LINECOLOUR,SYSVALUECOPY
0000CC	EF58	LDI SYSVALUECOPY,248
0000CD	9350 015E	STS LINECOLOUR_H,SYSVALUECOPY
0000CF	D05F	RCALL BOX
0000D0	E050	LDI SYSVALUECOPY,0
0000D1	9350 015F	STS LINEX1,SYSVALUECOPY
0000D3	9350 0160	STS LINEX1_H,SYSVALUECOPY
0000D5	E050	LDI SYSVALUECOPY,0
0000D6	9350 0163	STS LINEY1,SYSVALUECOPY
0000D8	9350 0164	STS LINEY1_H,SYSVALUECOPY
0000DA	EE5F	LDI SYSVALUECOPY,239
0000DB	9350 0161	STS LINEX2,SYSVALUECOPY
0000DD	E050	LDI SYSVALUECOPY,0
0000DE	9350 0162	STS LINEX2_H,SYSVALUECOPY
0000E0	E35F	LDI SYSVALUECOPY,63
0000E1	9350 0165	STS LINEY2,SYSVALUECOPY
0000E3	E051	LDI SYSVALUECOPY,1
0000E4	9350 0166	STS LINEY2_H,SYSVALUECOPY
0000E6	EE50	LDI SYSVALUECOPY,224
0000E7	9350 015D	STS LINECOLOUR,SYSVALUECOPY
0000E9	EF5F	LDI SYSVALUECOPY,255
0000EA	9350 015E	STS LINECOLOUR_H,SYSVALUECOPY
0000EC	D042	RCALL BOX
0000ED	E051	LDI SYSVALUECOPY,1
0000EE	9350 0149	STS GLCDFNTDEFAULTSIZE,SYSVALUECOPY
0000F0	E156	LDI SYSVALUECOPY,22
0000F1	9350 0170	STS PRINTLOCX,SYSVALUECOPY
0000F3	E050	LDI SYSVALUECOPY,0
0000F4	9350 0171	STS PRINTLOCX_H,SYSVALUECOPY
0000F6	E355	LDI SYSVALUECOPY,53
0000F7	9350 0172	STS PRINTLOCY,SYSVALUECOPY
0000F9	E051	LDI SYSVALUECOPY,1
0000FA	9350 0173	STS PRINTLOCY_H,SYSVALUECOPY
0000FC	E0C0	LDI SYSSTRINGB,LOW(SYSSTRINGPARAM1)
0000FD	E0D1	LDI SYSSTRINGB_H,HIGH(SYSSTRINGPARAM1)
0000FE	E8EE	LDI SYSREADA,LOW(STRINGTABLE4<<1)
0000FF	E1FD	LDI SYSREADA_H,HIGH(STRINGTABLE4<<1)
000100	940E 0E9C	CALL SYSREADSTRING
000102	E050	LDI SYSVALUECOPY,LOW(SYSSTRINGPARAM1)
000103	9350 0178	STS SYSLCDPRINTDATAHANDLER,SYSVALUECOPY
000105	E051	LDI SYSVALUECOPY,HIGH(SYSSTRINGPARAM1)
000106	9350 0179	STS SYSLCDPRINTDATAHANDLER_H,SYSVALUECOPY
000108	E050	LDI SYSVALUECOPY,0
000109	9350 015D	STS LINECOLOUR,SYSVALUECOPY
00010B	9350 015E	STS LINECOLOUR_H,SYSVALUECOPY
00010D	D538	RCALL GLCDPRINT4
00010E	EC54	LDI SYSVALUECOPY,196
00010F	9350 0170	STS PRINTLOCX,SYSVALUECOPY
000111	E050	LDI SYSVALUECOPY,0
000112	9350 0171	STS PRINTLOCX_H,SYSVALUECOPY
000114	E056	LDI SYSVALUECOPY,6
000115	9350 0172	STS PRINTLOCY,SYSVALUECOPY
000117	E050	LDI SYSVALUECOPY,0
000118	9350 0173	STS PRINTLOCY_H,SYSVALUECOPY
00011A	E0C0	LDI SYSSTRINGB,LOW(SYSSTRINGPARAM1)
00011B	E0D1	LDI SYSSTRINGB_H,HIGH(SYSSTRINGPARAM1)
00011C	ECE2	LDI SYSREADA,LOW(STRINGTABLE5<<1)
00011D	E1FD	LDI SYSREADA_H,HIGH(STRINGTABLE5<<1)
00011E	940E 0E9C	CALL SYSREADSTRING
000120	E050	LDI SYSVALUECOPY,LOW(SYSSTRINGPARAM1)
000121	9350 0178	STS SYSLCDPRINTDATAHANDLER,SYSVALUECOPY
000123	E051	LDI SYSVALUECOPY,HIGH(SYSSTRINGPARAM1)
000124	9350 0179	STS SYSLCDPRINTDATAHANDLER_H,SYSVALUECOPY
000126	E050	LDI SYSVALUECOPY,0
000127	9350 015D	STS LINECOLOUR,SYSVALUECOPY
000129	9350 015E	STS LINECOLOUR_H,SYSVALUECOPY
00012B	D51A	RCALL GLCDPRINT4
		SYSDOLOOP_S1
00012C	CFFF	RJMP SYSDOLOOP_S1
		SYSDOLOOP_E1
		BASPROGRAMEND
00012D	9588	SLEEP
00012E	CFFE	RJMP BASPROGRAMEND


		BOX
00012F	91C0 015F	LDS SYSWORDTEMPB,LINEX1
000131	91D0 0160	LDS SYSWORDTEMPB_H,LINEX1_H
000133	9160 0161	LDS SYSWORDTEMPA,LINEX2
000135	9170 0162	LDS SYSWORDTEMPA_H,LINEX2_H
000137	940E 0E88	CALL SYSCOMPLESSTHAN16
000139	FE00	SBRS SYSBYTETEMPX,0
00013A	C018	RJMP ENDIF4
00013B	9150 015F	LDS SYSVALUECOPY,LINEX1
00013D	9350 0152	STS GLCDTEMP,SYSVALUECOPY
00013F	9150 0160	LDS SYSVALUECOPY,LINEX1_H
000141	9350 0153	STS GLCDTEMP_H,SYSVALUECOPY
000143	9150 0161	LDS SYSVALUECOPY,LINEX2
000145	9350 015F	STS LINEX1,SYSVALUECOPY
000147	9150 0162	LDS SYSVALUECOPY,LINEX2_H
000149	9350 0160	STS LINEX1_H,SYSVALUECOPY
00014B	9150 0152	LDS SYSVALUECOPY,GLCDTEMP
00014D	9350 0161	STS LINEX2,SYSVALUECOPY
00014F	9150 0153	LDS SYSVALUECOPY,GLCDTEMP_H
000151	9350 0162	STS LINEX2_H,SYSVALUECOPY
		ENDIF4
000153	91C0 0163	LDS SYSWORDTEMPB,LINEY1
000155	91D0 0164	LDS SYSWORDTEMPB_H,LINEY1_H
000157	9160 0165	LDS SYSWORDTEMPA,LINEY2
000159	9170 0166	LDS SYSWORDTEMPA_H,LINEY2_H
00015B	940E 0E88	CALL SYSCOMPLESSTHAN16
00015D	FE00	SBRS SYSBYTETEMPX,0
00015E	C018	RJMP ENDIF5
00015F	9150 0163	LDS SYSVALUECOPY,LINEY1
000161	9350 0152	STS GLCDTEMP,SYSVALUECOPY
000163	9150 0164	LDS SYSVALUECOPY,LINEY1_H
000165	9350 0153	STS GLCDTEMP_H,SYSVALUECOPY
000167	9150 0165	LDS SYSVALUECOPY,LINEY2
000169	9350 0163	STS LINEY1,SYSVALUECOPY
00016B	9150 0166	LDS SYSVALUECOPY,LINEY2_H
00016D	9350 0164	STS LINEY1_H,SYSVALUECOPY
00016F	9150 0152	LDS SYSVALUECOPY,GLCDTEMP
000171	9350 0165	STS LINEY2,SYSVALUECOPY
000173	9150 0153	LDS SYSVALUECOPY,GLCDTEMP_H
000175	9350 0166	STS LINEY2_H,SYSVALUECOPY
		ENDIF5
000177	9060 015F	LDS SYSTEMP1,LINEX1
000179	E001	LDI SYSTEMP3,1
00017A	1A60	SUB SYSTEMP1,SYSTEMP3
00017B	9260 013E	STS DRAWLINE,SYSTEMP1
00017D	9060 0160	LDS SYSTEMP1,LINEX1_H
00017F	E000	LDI SYSTEMP3,0
000180	0A60	SBC SYSTEMP1,SYSTEMP3
000181	9260 013F	STS DRAWLINE_H,SYSTEMP1
000183	91C0 015F	LDS SYSWORDTEMPB,LINEX1
000185	91D0 0160	LDS SYSWORDTEMPB_H,LINEX1_H
000187	9160 0161	LDS SYSWORDTEMPA,LINEX2
000189	9170 0162	LDS SYSWORDTEMPA_H,LINEX2_H
00018B	940E 0E88	CALL SYSCOMPLESSTHAN16
00018D	FC00	SBRC SYSBYTETEMPX,0
00018E	C04B	RJMP SYSFORLOOPEND2
		ENDIF6
		SYSFORLOOP2
00018F	9060 013E	LDS SYSTEMP1,DRAWLINE
000191	9463	INC SYSTEMP1
000192	9260 013E	STS DRAWLINE,SYSTEMP1
000194	9060 013F	LDS SYSTEMP1,DRAWLINE_H
000196	F409	BRNE PC + 2
000197	9463	INC SYSTEMP1
000198	9260 013F	STS DRAWLINE_H,SYSTEMP1
00019A	9150 013E	LDS SYSVALUECOPY,DRAWLINE
00019C	9350 0154	STS GLCDX,SYSVALUECOPY
00019E	9150 013F	LDS SYSVALUECOPY,DRAWLINE_H
0001A0	9350 0155	STS GLCDX_H,SYSVALUECOPY
0001A2	9150 0163	LDS SYSVALUECOPY,LINEY1
0001A4	9350 0156	STS GLCDY,SYSVALUECOPY
0001A6	9150 0164	LDS SYSVALUECOPY,LINEY1_H
0001A8	9350 0157	STS GLCDY_H,SYSVALUECOPY
0001AA	9150 015D	LDS SYSVALUECOPY,LINECOLOUR
0001AC	9350 0142	STS GLCDCOLOUR,SYSVALUECOPY
0001AE	9150 015E	LDS SYSVALUECOPY,LINECOLOUR_H
0001B0	9350 0143	STS GLCDCOLOUR_H,SYSVALUECOPY
0001B2	940E 0DA8	CALL PSET_ILI9341
0001B4	9150 013E	LDS SYSVALUECOPY,DRAWLINE
0001B6	9350 0154	STS GLCDX,SYSVALUECOPY
0001B8	9150 013F	LDS SYSVALUECOPY,DRAWLINE_H
0001BA	9350 0155	STS GLCDX_H,SYSVALUECOPY
0001BC	9150 0165	LDS SYSVALUECOPY,LINEY2
0001BE	9350 0156	STS GLCDY,SYSVALUECOPY
0001C0	9150 0166	LDS SYSVALUECOPY,LINEY2_H
0001C2	9350 0157	STS GLCDY_H,SYSVALUECOPY
0001C4	9150 015D	LDS SYSVALUECOPY,LINECOLOUR
0001C6	9350 0142	STS GLCDCOLOUR,SYSVALUECOPY
0001C8	9150 015E	LDS SYSVALUECOPY,LINECOLOUR_H
0001CA	9350 0143	STS GLCDCOLOUR_H,SYSVALUECOPY
0001CC	940E 0DA8	CALL PSET_ILI9341
0001CE	9160 013E	LDS SYSWORDTEMPA,DRAWLINE
0001D0	9170 013F	LDS SYSWORDTEMPA_H,DRAWLINE_H
0001D2	91C0 0161	LDS SYSWORDTEMPB,LINEX2
0001D4	91D0 0162	LDS SYSWORDTEMPB_H,LINEX2_H
0001D6	940E 0E88	CALL SYSCOMPLESSTHAN16
0001D8	FC00	SBRC SYSBYTETEMPX,0
0001D9	CFB5	RJMP SYSFORLOOP2
		ENDIF7
		SYSFORLOOPEND2
0001DA	9060 0163	LDS SYSTEMP1,LINEY1
0001DC	E001	LDI SYSTEMP3,1
0001DD	1A60	SUB SYSTEMP1,SYSTEMP3
0001DE	9260 013E	STS DRAWLINE,SYSTEMP1
0001E0	9060 0164	LDS SYSTEMP1,LINEY1_H
0001E2	E000	LDI SYSTEMP3,0
0001E3	0A60	SBC SYSTEMP1,SYSTEMP3
0001E4	9260 013F	STS DRAWLINE_H,SYSTEMP1
0001E6	91C0 0163	LDS SYSWORDTEMPB,LINEY1
0001E8	91D0 0164	LDS SYSWORDTEMPB_H,LINEY1_H
0001EA	9160 0165	LDS SYSWORDTEMPA,LINEY2
0001EC	9170 0166	LDS SYSWORDTEMPA_H,LINEY2_H
0001EE	940E 0E88	CALL SYSCOMPLESSTHAN16
0001F0	FC00	SBRC SYSBYTETEMPX,0
0001F1	C04B	RJMP SYSFORLOOPEND3
		ENDIF8
		SYSFORLOOP3
0001F2	9060 013E	LDS SYSTEMP1,DRAWLINE
0001F4	9463	INC SYSTEMP1
0001F5	9260 013E	STS DRAWLINE,SYSTEMP1
0001F7	9060 013F	LDS SYSTEMP1,DRAWLINE_H
0001F9	F409	BRNE PC + 2
0001FA	9463	INC SYSTEMP1
0001FB	9260 013F	STS DRAWLINE_H,SYSTEMP1
0001FD	9150 015F	LDS SYSVALUECOPY,LINEX1
0001FF	9350 0154	STS GLCDX,SYSVALUECOPY
000201	9150 0160	LDS SYSVALUECOPY,LINEX1_H
000203	9350 0155	STS GLCDX_H,SYSVALUECOPY
000205	9150 013E	LDS SYSVALUECOPY,DRAWLINE
000207	9350 0156	STS GLCDY,SYSVALUECOPY
000209	9150 013F	LDS SYSVALUECOPY,DRAWLINE_H
00020B	9350 0157	STS GLCDY_H,SYSVALUECOPY
00020D	9150 015D	LDS SYSVALUECOPY,LINECOLOUR
00020F	9350 0142	STS GLCDCOLOUR,SYSVALUECOPY
000211	9150 015E	LDS SYSVALUECOPY,LINECOLOUR_H
000213	9350 0143	STS GLCDCOLOUR_H,SYSVALUECOPY
000215	940E 0DA8	CALL PSET_ILI9341
000217	9150 0161	LDS SYSVALUECOPY,LINEX2
000219	9350 0154	STS GLCDX,SYSVALUECOPY
00021B	9150 0162	LDS SYSVALUECOPY,LINEX2_H
00021D	9350 0155	STS GLCDX_H,SYSVALUECOPY
00021F	9150 013E	LDS SYSVALUECOPY,DRAWLINE
000221	9350 0156	STS GLCDY,SYSVALUECOPY
000223	9150 013F	LDS SYSVALUECOPY,DRAWLINE_H
000225	9350 0157	STS GLCDY_H,SYSVALUECOPY
000227	9150 015D	LDS SYSVALUECOPY,LINECOLOUR
000229	9350 0142	STS GLCDCOLOUR,SYSVALUECOPY
00022B	9150 015E	LDS SYSVALUECOPY,LINECOLOUR_H
00022D	9350 0143	STS GLCDCOLOUR_H,SYSVALUECOPY
00022F	940E 0DA8	CALL PSET_ILI9341
000231	9160 013E	LDS SYSWORDTEMPA,DRAWLINE
000233	9170 013F	LDS SYSWORDTEMPA_H,DRAWLINE_H
000235	91C0 0165	LDS SYSWORDTEMPB,LINEY2
000237	91D0 0166	LDS SYSWORDTEMPB_H,LINEY2_H
000239	940E 0E88	CALL SYSCOMPLESSTHAN16
00023B	FC00	SBRC SYSBYTETEMPX,0
00023C	CFB5	RJMP SYSFORLOOP3
		ENDIF9
		SYSFORLOOPEND3
00023D	9508	RET


		DRAWBMP
00023E	E051	LDI SYSVALUECOPY,1
00023F	9350 017D	STS TABLEREADPOSITION,SYSVALUECOPY
000241	E050	LDI SYSVALUECOPY,0
000242	9350 017E	STS TABLEREADPOSITION_H,SYSVALUECOPY
		SYSSELECT1CASE1
000244	9160 0175	LDS SYSWORDTEMPA,SELECTEDTABLE
000246	9170 0176	LDS SYSWORDTEMPA_H,SELECTEDTABLE_H
000248	EEC7	LDI SYSWORDTEMPB,LOW(TABLEIMAGE1)
000249	E0DE	LDI SYSWORDTEMPB_H,HIGH(TABLEIMAGE1)
00024A	940E 0E81	CALL SYSCOMPEQUAL16
00024C	FE00	SBRS SYSBYTETEMPX,0
00024D	C02C	RJMP SYSSELECT1CASE2
00024E	91A0 017D	LDS SYSSTRINGA,TABLEREADPOSITION
000250	91B0 017E	LDS SYSSTRINGA_H,TABLEREADPOSITION_H
000252	940E 0EE7	CALL TABLEIMAGE1
000254	9200 016B	STS OBJWIDTH,SYSBYTETEMPX
000256	91A0 017D	LDS SYSSTRINGA,TABLEREADPOSITION
000258	91B0 017E	LDS SYSSTRINGA_H,TABLEREADPOSITION_H
00025A	940E 2026	CALL TABLEIMAGE1_H
00025C	9200 016C	STS OBJWIDTH_H,SYSBYTETEMPX
00025E	9060 017D	LDS SYSTEMP1,TABLEREADPOSITION
000260	9463	INC SYSTEMP1
000261	9260 017D	STS TABLEREADPOSITION,SYSTEMP1
000263	9060 017E	LDS SYSTEMP1,TABLEREADPOSITION_H
000265	F409	BRNE PC + 2
000266	9463	INC SYSTEMP1
000267	9260 017E	STS TABLEREADPOSITION_H,SYSTEMP1
000269	91A0 017D	LDS SYSSTRINGA,TABLEREADPOSITION
00026B	91B0 017E	LDS SYSSTRINGA_H,TABLEREADPOSITION_H
00026D	940E 0EE7	CALL TABLEIMAGE1
00026F	9200 0169	STS OBJHEIGHT,SYSBYTETEMPX
000271	91A0 017D	LDS SYSSTRINGA,TABLEREADPOSITION
000273	91B0 017E	LDS SYSSTRINGA_H,TABLEREADPOSITION_H
000275	940E 2026	CALL TABLEIMAGE1_H
000277	9200 016A	STS OBJHEIGHT_H,SYSBYTETEMPX
000279	C09F	RJMP SYSSELECTEND1
		SYSSELECT1CASE2
00027A	9160 0175	LDS SYSWORDTEMPA,SELECTEDTABLE
00027C	9170 0176	LDS SYSWORDTEMPA_H,SELECTEDTABLE_H
00027E	E6C6	LDI SYSWORDTEMPB,LOW(TABLEIMAGE2)
00027F	E3D1	LDI SYSWORDTEMPB_H,HIGH(TABLEIMAGE2)
000280	940E 0E81	CALL SYSCOMPEQUAL16
000282	FE00	SBRS SYSBYTETEMPX,0
000283	C01E	RJMP SYSSELECT1CASE3
000284	91A0 017D	LDS SYSSTRINGA,TABLEREADPOSITION
000286	940E 3166	CALL TABLEIMAGE2
000288	9200 016B	STS OBJWIDTH,SYSBYTETEMPX
00028A	E050	LDI SYSVALUECOPY,0
00028B	9350 016C	STS OBJWIDTH_H,SYSVALUECOPY
00028D	9060 017D	LDS SYSTEMP1,TABLEREADPOSITION
00028F	9463	INC SYSTEMP1
000290	9260 017D	STS TABLEREADPOSITION,SYSTEMP1
000292	9060 017E	LDS SYSTEMP1,TABLEREADPOSITION_H
000294	F409	BRNE PC + 2
000295	9463	INC SYSTEMP1
000296	9260 017E	STS TABLEREADPOSITION_H,SYSTEMP1
000298	91A0 017D	LDS SYSSTRINGA,TABLEREADPOSITION
00029A	940E 3166	CALL TABLEIMAGE2
00029C	9200 0169	STS OBJHEIGHT,SYSBYTETEMPX
00029E	E050	LDI SYSVALUECOPY,0
00029F	9350 016A	STS OBJHEIGHT_H,SYSVALUECOPY
0002A1	C077	RJMP SYSSELECTEND1
		SYSSELECT1CASE3
0002A2	9160 0175	LDS SYSWORDTEMPA,SELECTEDTABLE
0002A4	9170 0176	LDS SYSWORDTEMPA_H,SELECTEDTABLE_H
0002A6	E7C1	LDI SYSWORDTEMPB,LOW(TABLEIMAGE3)
0002A7	E3D1	LDI SYSWORDTEMPB_H,HIGH(TABLEIMAGE3)
0002A8	940E 0E81	CALL SYSCOMPEQUAL16
0002AA	FE00	SBRS SYSBYTETEMPX,0
0002AB	C01E	RJMP SYSSELECT1CASE4
0002AC	91A0 017D	LDS SYSSTRINGA,TABLEREADPOSITION
0002AE	940E 3171	CALL TABLEIMAGE3
0002B0	9200 016B	STS OBJWIDTH,SYSBYTETEMPX
0002B2	E050	LDI SYSVALUECOPY,0
0002B3	9350 016C	STS OBJWIDTH_H,SYSVALUECOPY
0002B5	9060 017D	LDS SYSTEMP1,TABLEREADPOSITION
0002B7	9463	INC SYSTEMP1
0002B8	9260 017D	STS TABLEREADPOSITION,SYSTEMP1
0002BA	9060 017E	LDS SYSTEMP1,TABLEREADPOSITION_H
0002BC	F409	BRNE PC + 2
0002BD	9463	INC SYSTEMP1
0002BE	9260 017E	STS TABLEREADPOSITION_H,SYSTEMP1
0002C0	91A0 017D	LDS SYSSTRINGA,TABLEREADPOSITION
0002C2	940E 3171	CALL TABLEIMAGE3
0002C4	9200 0169	STS OBJHEIGHT,SYSBYTETEMPX
0002C6	E050	LDI SYSVALUECOPY,0
0002C7	9350 016A	STS OBJHEIGHT_H,SYSVALUECOPY
0002C9	C04F	RJMP SYSSELECTEND1
		SYSSELECT1CASE4
0002CA	9160 0175	LDS SYSWORDTEMPA,SELECTEDTABLE
0002CC	9170 0176	LDS SYSWORDTEMPA_H,SELECTEDTABLE_H
0002CE	E7CC	LDI SYSWORDTEMPB,LOW(TABLEIMAGE4)
0002CF	E3D1	LDI SYSWORDTEMPB_H,HIGH(TABLEIMAGE4)
0002D0	940E 0E81	CALL SYSCOMPEQUAL16
0002D2	FE00	SBRS SYSBYTETEMPX,0
0002D3	C01E	RJMP SYSSELECT1CASE5
0002D4	91A0 017D	LDS SYSSTRINGA,TABLEREADPOSITION
0002D6	940E 317C	CALL TABLEIMAGE4
0002D8	9200 016B	STS OBJWIDTH,SYSBYTETEMPX
0002DA	E050	LDI SYSVALUECOPY,0
0002DB	9350 016C	STS OBJWIDTH_H,SYSVALUECOPY
0002DD	9060 017D	LDS SYSTEMP1,TABLEREADPOSITION
0002DF	9463	INC SYSTEMP1
0002E0	9260 017D	STS TABLEREADPOSITION,SYSTEMP1
0002E2	9060 017E	LDS SYSTEMP1,TABLEREADPOSITION_H
0002E4	F409	BRNE PC + 2
0002E5	9463	INC SYSTEMP1
0002E6	9260 017E	STS TABLEREADPOSITION_H,SYSTEMP1
0002E8	91A0 017D	LDS SYSSTRINGA,TABLEREADPOSITION
0002EA	940E 317C	CALL TABLEIMAGE4
0002EC	9200 0169	STS OBJHEIGHT,SYSBYTETEMPX
0002EE	E050	LDI SYSVALUECOPY,0
0002EF	9350 016A	STS OBJHEIGHT_H,SYSVALUECOPY
0002F1	C027	RJMP SYSSELECTEND1
		SYSSELECT1CASE5
0002F2	9160 0175	LDS SYSWORDTEMPA,SELECTEDTABLE
0002F4	9170 0176	LDS SYSWORDTEMPA_H,SELECTEDTABLE_H
0002F6	E8C7	LDI SYSWORDTEMPB,LOW(TABLEIMAGE5)
0002F7	E3D1	LDI SYSWORDTEMPB_H,HIGH(TABLEIMAGE5)
0002F8	940E 0E81	CALL SYSCOMPEQUAL16
0002FA	FE00	SBRS SYSBYTETEMPX,0
0002FB	C01D	RJMP SYSSELECTEND1
0002FC	91A0 017D	LDS SYSSTRINGA,TABLEREADPOSITION
0002FE	940E 3187	CALL TABLEIMAGE5
000300	9200 016B	STS OBJWIDTH,SYSBYTETEMPX
000302	E050	LDI SYSVALUECOPY,0
000303	9350 016C	STS OBJWIDTH_H,SYSVALUECOPY
000305	9060 017D	LDS SYSTEMP1,TABLEREADPOSITION
000307	9463	INC SYSTEMP1
000308	9260 017D	STS TABLEREADPOSITION,SYSTEMP1
00030A	9060 017E	LDS SYSTEMP1,TABLEREADPOSITION_H
00030C	F409	BRNE PC + 2
00030D	9463	INC SYSTEMP1
00030E	9260 017E	STS TABLEREADPOSITION_H,SYSTEMP1
000310	91A0 017D	LDS SYSSTRINGA,TABLEREADPOSITION
000312	940E 3187	CALL TABLEIMAGE5
000314	9200 0169	STS OBJHEIGHT,SYSBYTETEMPX
000316	E050	LDI SYSVALUECOPY,0
000317	9350 016A	STS OBJHEIGHT_H,SYSVALUECOPY
		SYSSELECTEND1
000319	E053	LDI SYSVALUECOPY,3
00031A	9350 017D	STS TABLEREADPOSITION,SYSVALUECOPY
00031C	E050	LDI SYSVALUECOPY,0
00031D	9350 017E	STS TABLEREADPOSITION_H,SYSVALUECOPY
00031F	EF5F	LDI SYSVALUECOPY,255
000320	9350 0189	STS YCOUNT,SYSVALUECOPY
000322	9350 018A	STS YCOUNT_H,SYSVALUECOPY
000324	9080 0169	LDS SYSTEMP2,OBJHEIGHT
000326	E001	LDI SYSTEMP3,1
000327	1A80	SUB SYSTEMP2,SYSTEMP3
000328	2C68	MOV SYSTEMP1,SYSTEMP2
000329	9080 016A	LDS SYSTEMP2,OBJHEIGHT_H
00032B	E000	LDI SYSTEMP3,0
00032C	0A80	SBC SYSTEMP2,SYSTEMP3
00032D	2C78	MOV SYSTEMP1_H,SYSTEMP2
00032E	E0C0	LDI SYSWORDTEMPB,0
00032F	E0D0	LDI SYSWORDTEMPB_H,0
000330	2D66	MOV SYSWORDTEMPA,SYSTEMP1
000331	2D77	MOV SYSWORDTEMPA_H,SYSTEMP1_H
000332	940E 0E88	CALL SYSCOMPLESSTHAN16
000334	FC00	SBRC SYSBYTETEMPX,0
000335	C100	RJMP SYSFORLOOPEND4
		ENDIF10
		SYSFORLOOP4
000336	9060 0189	LDS SYSTEMP1,YCOUNT
000338	9463	INC SYSTEMP1
000339	9260 0189	STS YCOUNT,SYSTEMP1
00033B	9060 018A	LDS SYSTEMP1,YCOUNT_H
00033D	F409	BRNE PC + 2
00033E	9463	INC SYSTEMP1
00033F	9260 018A	STS YCOUNT_H,SYSTEMP1
000341	EF5F	LDI SYSVALUECOPY,255
000342	9350 0187	STS XCOUNT,SYSVALUECOPY
000344	9350 0188	STS XCOUNT_H,SYSVALUECOPY
000346	9080 016B	LDS SYSTEMP2,OBJWIDTH
000348	E001	LDI SYSTEMP3,1
000349	1A80	SUB SYSTEMP2,SYSTEMP3
00034A	2C68	MOV SYSTEMP1,SYSTEMP2
00034B	9080 016C	LDS SYSTEMP2,OBJWIDTH_H
00034D	E000	LDI SYSTEMP3,0
00034E	0A80	SBC SYSTEMP2,SYSTEMP3
00034F	2C78	MOV SYSTEMP1_H,SYSTEMP2
000350	E0C0	LDI SYSWORDTEMPB,0
000351	E0D0	LDI SYSWORDTEMPB_H,0
000352	2D66	MOV SYSWORDTEMPA,SYSTEMP1
000353	2D77	MOV SYSWORDTEMPA_H,SYSTEMP1_H
000354	940E 0E88	CALL SYSCOMPLESSTHAN16
000356	FC00	SBRC SYSBYTETEMPX,0
000357	C0CA	RJMP SYSFORLOOPEND5
		ENDIF11
		SYSFORLOOP5
000358	9060 0187	LDS SYSTEMP1,XCOUNT
00035A	9463	INC SYSTEMP1
00035B	9260 0187	STS XCOUNT,SYSTEMP1
00035D	9060 0188	LDS SYSTEMP1,XCOUNT_H
00035F	F409	BRNE PC + 2
000360	9463	INC SYSTEMP1
000361	9260 0188	STS XCOUNT_H,SYSTEMP1
		SYSSELECT2CASE1
000363	9160 0175	LDS SYSWORDTEMPA,SELECTEDTABLE
000365	9170 0176	LDS SYSWORDTEMPA_H,SELECTEDTABLE_H
000367	EEC7	LDI SYSWORDTEMPB,LOW(TABLEIMAGE1)
000368	E0DE	LDI SYSWORDTEMPB_H,HIGH(TABLEIMAGE1)
000369	940E 0E81	CALL SYSCOMPEQUAL16
00036B	FE00	SBRS SYSBYTETEMPX,0
00036C	C011	RJMP SYSSELECT2CASE2
00036D	91A0 017D	LDS SYSSTRINGA,TABLEREADPOSITION
00036F	91B0 017E	LDS SYSSTRINGA_H,TABLEREADPOSITION_H
000371	940E 0EE7	CALL TABLEIMAGE1
000373	9200 016E	STS PIXELRGB,SYSBYTETEMPX
000375	91A0 017D	LDS SYSSTRINGA,TABLEREADPOSITION
000377	91B0 017E	LDS SYSSTRINGA_H,TABLEREADPOSITION_H
000379	940E 2026	CALL TABLEIMAGE1_H
00037B	9200 016F	STS PIXELRGB_H,SYSBYTETEMPX
00037D	C04F	RJMP SYSSELECTEND2
		SYSSELECT2CASE2
00037E	9160 0175	LDS SYSWORDTEMPA,SELECTEDTABLE
000380	9170 0176	LDS SYSWORDTEMPA_H,SELECTEDTABLE_H
000382	E6C6	LDI SYSWORDTEMPB,LOW(TABLEIMAGE2)
000383	E3D1	LDI SYSWORDTEMPB_H,HIGH(TABLEIMAGE2)
000384	940E 0E81	CALL SYSCOMPEQUAL16
000386	FE00	SBRS SYSBYTETEMPX,0
000387	C00A	RJMP SYSSELECT2CASE3
000388	91A0 017D	LDS SYSSTRINGA,TABLEREADPOSITION
00038A	940E 3166	CALL TABLEIMAGE2
00038C	9200 016E	STS PIXELRGB,SYSBYTETEMPX
00038E	E050	LDI SYSVALUECOPY,0
00038F	9350 016F	STS PIXELRGB_H,SYSVALUECOPY
000391	C03B	RJMP SYSSELECTEND2
		SYSSELECT2CASE3
000392	9160 0175	LDS SYSWORDTEMPA,SELECTEDTABLE
000394	9170 0176	LDS SYSWORDTEMPA_H,SELECTEDTABLE_H
000396	E7C1	LDI SYSWORDTEMPB,LOW(TABLEIMAGE3)
000397	E3D1	LDI SYSWORDTEMPB_H,HIGH(TABLEIMAGE3)
000398	940E 0E81	CALL SYSCOMPEQUAL16
00039A	FE00	SBRS SYSBYTETEMPX,0
00039B	C00A	RJMP SYSSELECT2CASE4
00039C	91A0 017D	LDS SYSSTRINGA,TABLEREADPOSITION
00039E	940E 3171	CALL TABLEIMAGE3
0003A0	9200 016E	STS PIXELRGB,SYSBYTETEMPX
0003A2	E050	LDI SYSVALUECOPY,0
0003A3	9350 016F	STS PIXELRGB_H,SYSVALUECOPY
0003A5	C027	RJMP SYSSELECTEND2
		SYSSELECT2CASE4
0003A6	9160 0175	LDS SYSWORDTEMPA,SELECTEDTABLE
0003A8	9170 0176	LDS SYSWORDTEMPA_H,SELECTEDTABLE_H
0003AA	E7CC	LDI SYSWORDTEMPB,LOW(TABLEIMAGE4)
0003AB	E3D1	LDI SYSWORDTEMPB_H,HIGH(TABLEIMAGE4)
0003AC	940E 0E81	CALL SYSCOMPEQUAL16
0003AE	FE00	SBRS SYSBYTETEMPX,0
0003AF	C00A	RJMP SYSSELECT2CASE5
0003B0	91A0 017D	LDS SYSSTRINGA,TABLEREADPOSITION
0003B2	940E 317C	CALL TABLEIMAGE4
0003B4	9200 016E	STS PIXELRGB,SYSBYTETEMPX
0003B6	E050	LDI SYSVALUECOPY,0
0003B7	9350 016F	STS PIXELRGB_H,SYSVALUECOPY
0003B9	C013	RJMP SYSSELECTEND2
		SYSSELECT2CASE5
0003BA	9160 0175	LDS SYSWORDTEMPA,SELECTEDTABLE
0003BC	9170 0176	LDS SYSWORDTEMPA_H,SELECTEDTABLE_H
0003BE	E8C7	LDI SYSWORDTEMPB,LOW(TABLEIMAGE5)
0003BF	E3D1	LDI SYSWORDTEMPB_H,HIGH(TABLEIMAGE5)
0003C0	940E 0E81	CALL SYSCOMPEQUAL16
0003C2	FE00	SBRS SYSBYTETEMPX,0
0003C3	C009	RJMP SYSSELECTEND2
0003C4	91A0 017D	LDS SYSSTRINGA,TABLEREADPOSITION
0003C6	940E 3187	CALL TABLEIMAGE5
0003C8	9200 016E	STS PIXELRGB,SYSBYTETEMPX
0003CA	E050	LDI SYSVALUECOPY,0
0003CB	9350 016F	STS PIXELRGB_H,SYSVALUECOPY
		SYSSELECTEND2
0003CD	9060 017D	LDS SYSTEMP1,TABLEREADPOSITION
0003CF	9463	INC SYSTEMP1
0003D0	9260 017D	STS TABLEREADPOSITION,SYSTEMP1
0003D2	9060 017E	LDS SYSTEMP1,TABLEREADPOSITION_H
0003D4	F409	BRNE PC + 2
0003D5	9463	INC SYSTEMP1
0003D6	9260 017E	STS TABLEREADPOSITION_H,SYSTEMP1
0003D8	9060 0181	LDS SYSTEMP1,TFTXPOS
0003DA	9080 0187	LDS SYSTEMP2,XCOUNT
0003DC	0C68	ADD SYSTEMP1,SYSTEMP2
0003DD	9260 017F	STS TFTX,SYSTEMP1
0003DF	9060 0182	LDS SYSTEMP1,TFTXPOS_H
0003E1	9080 0188	LDS SYSTEMP2,XCOUNT_H
0003E3	1C68	ADC SYSTEMP1,SYSTEMP2
0003E4	9260 0180	STS TFTX_H,SYSTEMP1
0003E6	9060 0185	LDS SYSTEMP1,TFTYPOS
0003E8	9080 0189	LDS SYSTEMP2,YCOUNT
0003EA	0C68	ADD SYSTEMP1,SYSTEMP2
0003EB	9260 0183	STS TFTY,SYSTEMP1
0003ED	9060 0186	LDS SYSTEMP1,TFTYPOS_H
0003EF	9080 018A	LDS SYSTEMP2,YCOUNT_H
0003F1	1C68	ADC SYSTEMP1,SYSTEMP2
0003F2	9260 0184	STS TFTY_H,SYSTEMP1
0003F4	9150 017F	LDS SYSVALUECOPY,TFTX
0003F6	9350 0154	STS GLCDX,SYSVALUECOPY
0003F8	9150 0180	LDS SYSVALUECOPY,TFTX_H
0003FA	9350 0155	STS GLCDX_H,SYSVALUECOPY
0003FC	9150 0183	LDS SYSVALUECOPY,TFTY
0003FE	9350 0156	STS GLCDY,SYSVALUECOPY
000400	9150 0184	LDS SYSVALUECOPY,TFTY_H
000402	9350 0157	STS GLCDY_H,SYSVALUECOPY
000404	9150 016E	LDS SYSVALUECOPY,PIXELRGB
000406	9350 0142	STS GLCDCOLOUR,SYSVALUECOPY
000408	9150 016F	LDS SYSVALUECOPY,PIXELRGB_H
00040A	9350 0143	STS GLCDCOLOUR_H,SYSVALUECOPY
00040C	940E 0DA8	CALL PSET_ILI9341
00040E	9080 016B	LDS SYSTEMP2,OBJWIDTH
000410	E001	LDI SYSTEMP3,1
000411	1A80	SUB SYSTEMP2,SYSTEMP3
000412	2C68	MOV SYSTEMP1,SYSTEMP2
000413	9080 016C	LDS SYSTEMP2,OBJWIDTH_H
000415	E000	LDI SYSTEMP3,0
000416	0A80	SBC SYSTEMP2,SYSTEMP3
000417	2C78	MOV SYSTEMP1_H,SYSTEMP2
000418	9160 0187	LDS SYSWORDTEMPA,XCOUNT
00041A	9170 0188	LDS SYSWORDTEMPA_H,XCOUNT_H
00041C	2DC6	MOV SYSWORDTEMPB,SYSTEMP1
00041D	2DD7	MOV SYSWORDTEMPB_H,SYSTEMP1_H
00041E	940E 0E88	CALL SYSCOMPLESSTHAN16
000420	FC00	SBRC SYSBYTETEMPX,0
000421	CF36	RJMP SYSFORLOOP5
		ENDIF12
		SYSFORLOOPEND5
000422	9080 0169	LDS SYSTEMP2,OBJHEIGHT
000424	E001	LDI SYSTEMP3,1
000425	1A80	SUB SYSTEMP2,SYSTEMP3
000426	2C68	MOV SYSTEMP1,SYSTEMP2
000427	9080 016A	LDS SYSTEMP2,OBJHEIGHT_H
000429	E000	LDI SYSTEMP3,0
00042A	0A80	SBC SYSTEMP2,SYSTEMP3
00042B	2C78	MOV SYSTEMP1_H,SYSTEMP2
00042C	9160 0189	LDS SYSWORDTEMPA,YCOUNT
00042E	9170 018A	LDS SYSWORDTEMPA_H,YCOUNT_H
000430	2DC6	MOV SYSWORDTEMPB,SYSTEMP1
000431	2DD7	MOV SYSWORDTEMPB_H,SYSTEMP1_H
000432	940E 0E88	CALL SYSCOMPLESSTHAN16
000434	FC00	SBRC SYSBYTETEMPX,0
000435	CF00	RJMP SYSFORLOOP4
		ENDIF13
		SYSFORLOOPEND4
000436	9508	RET


		DELAY_MS
000437	95E3	INC SYSWAITTEMPMS_H
		DMS_START
000438	EFAE	LDI DELAYTEMP2,254
		DMS_OUTER
000439	E194	LDI DELAYTEMP,20
		DMS_INNER
00043A	959A	DEC DELAYTEMP
00043B	F7F1	BRNE DMS_INNER
00043C	95AA	DEC DELAYTEMP2
00043D	F7D9	BRNE DMS_OUTER
00043E	95DA	DEC SYSWAITTEMPMS
00043F	F7C1	BRNE DMS_START
000440	95EA	DEC SYSWAITTEMPMS_H
000441	F7B1	BRNE DMS_START
000442	9508	RET


		GLCDCLS_ILI9341
000443	E050	LDI SYSVALUECOPY,0
000444	9350 0158	STS GLCD_YORDINATE,SYSVALUECOPY
000446	9350 0159	STS GLCD_YORDINATE_H,SYSVALUECOPY
000448	E050	LDI SYSVALUECOPY,0
000449	9350 018B	STS _X1,SYSVALUECOPY
00044B	9350 018C	STS _X1_H,SYSVALUECOPY
00044D	E050	LDI SYSVALUECOPY,0
00044E	9350 018F	STS _Y1,SYSVALUECOPY
000450	9350 0190	STS _Y1_H,SYSVALUECOPY
000452	9040 0146	LDS SYSTEMP4,GLCDDEVICEWIDTH
000454	E001	LDI SYSTEMP3,1
000455	1A40	SUB SYSTEMP4,SYSTEMP3
000456	9240 018D	STS _X2,SYSTEMP4
000458	9040 0147	LDS SYSTEMP4,GLCDDEVICEWIDTH_H
00045A	E000	LDI SYSTEMP3,0
00045B	0A40	SBC SYSTEMP4,SYSTEMP3
00045C	9240 018E	STS _X2_H,SYSTEMP4
00045E	9040 0144	LDS SYSTEMP4,GLCDDEVICEHEIGHT
000460	E001	LDI SYSTEMP3,1
000461	1A40	SUB SYSTEMP4,SYSTEMP3
000462	9240 0191	STS _Y2,SYSTEMP4
000464	9040 0145	LDS SYSTEMP4,GLCDDEVICEHEIGHT_H
000466	E000	LDI SYSTEMP3,0
000467	0A40	SBC SYSTEMP4,SYSTEMP3
000468	9240 0192	STS _Y2_H,SYSTEMP4
00046A	940E 0E48	CALL SETADDRESSWINDOW_ILI9341
00046C	9150 0140	LDS SYSVALUECOPY,GLCDBACKGROUND
00046E	9350 015B	STS ILI9341SENDWORD,SYSVALUECOPY
000470	9150 0141	LDS SYSVALUECOPY,GLCDBACKGROUND_H
000472	9350 015C	STS ILI9341SENDWORD_H,SYSVALUECOPY
000474	9843	CBI PORTC,3
000475	9A42	SBI PORTC,2
000476	9A40	SBI PORTC,0
000477	E052	LDI SYSVALUECOPY,2
000478	9350 017A	STS SYSREPEATTEMP1,SYSVALUECOPY
		SYSREPEATLOOP1
00047A	E050	LDI SYSVALUECOPY,0
00047B	9350 017B	STS SYSREPEATTEMP2,SYSVALUECOPY
00047D	E956	LDI SYSVALUECOPY,150
00047E	9350 017C	STS SYSREPEATTEMP2_H,SYSVALUECOPY
		SYSREPEATLOOP2
000480	9A41	SBI PORTC,1
000481	E003	LDI SYSTEMP3,3
000482	B06B	IN SYSTEMP1,PORTD
000483	2260	AND SYSTEMP1,SYSTEMP3
000484	2C46	MOV SYSTEMP4,SYSTEMP1
000485	EF0C	LDI SYSTEMP3,252
000486	9080 015C	LDS SYSTEMP2,ILI9341SENDWORD_H
000488	2280	AND SYSTEMP2,SYSTEMP3
000489	2C68	MOV SYSTEMP1,SYSTEMP2
00048A	2864	OR SYSTEMP1,SYSTEMP4
00048B	B86B	OUT PORTD,SYSTEMP1
00048C	EF0C	LDI SYSTEMP3,252
00048D	B065	IN SYSTEMP1,PORTB
00048E	2260	AND SYSTEMP1,SYSTEMP3
00048F	2C46	MOV SYSTEMP4,SYSTEMP1
000490	E003	LDI SYSTEMP3,3
000491	9080 015C	LDS SYSTEMP2,ILI9341SENDWORD_H
000493	2280	AND SYSTEMP2,SYSTEMP3
000494	2C68	MOV SYSTEMP1,SYSTEMP2
000495	2864	OR SYSTEMP1,SYSTEMP4
000496	B865	OUT PORTB,SYSTEMP1
000497	9841	CBI PORTC,1
000498	9A41	SBI PORTC,1
000499	E003	LDI SYSTEMP3,3
00049A	B06B	IN SYSTEMP1,PORTD
00049B	2260	AND SYSTEMP1,SYSTEMP3
00049C	2C46	MOV SYSTEMP4,SYSTEMP1
00049D	EF0C	LDI SYSTEMP3,252
00049E	9080 015B	LDS SYSTEMP2,ILI9341SENDWORD
0004A0	2280	AND SYSTEMP2,SYSTEMP3
0004A1	2C68	MOV SYSTEMP1,SYSTEMP2
0004A2	E050	LDI SYSVALUECOPY,0
0004A3	2E75	MOV SYSTEMP1_H,SYSVALUECOPY
0004A4	2864	OR SYSTEMP1,SYSTEMP4
0004A5	B86B	OUT PORTD,SYSTEMP1
0004A6	EF0C	LDI SYSTEMP3,252
0004A7	B065	IN SYSTEMP1,PORTB
0004A8	2260	AND SYSTEMP1,SYSTEMP3
0004A9	2C46	MOV SYSTEMP4,SYSTEMP1
0004AA	E003	LDI SYSTEMP3,3
0004AB	9080 015B	LDS SYSTEMP2,ILI9341SENDWORD
0004AD	2280	AND SYSTEMP2,SYSTEMP3
0004AE	2C68	MOV SYSTEMP1,SYSTEMP2
0004AF	E050	LDI SYSVALUECOPY,0
0004B0	2E75	MOV SYSTEMP1_H,SYSVALUECOPY
0004B1	2864	OR SYSTEMP1,SYSTEMP4
0004B2	B865	OUT PORTB,SYSTEMP1
0004B3	9841	CBI PORTC,1
0004B4	9060 017B	LDS SYSTEMP1,SYSREPEATTEMP2
0004B6	9070 017C	LDS SYSTEMP1_H,SYSREPEATTEMP2_H
0004B8	946A	DEC SYSTEMP1
0004B9	9260 017B	STS SYSREPEATTEMP2,SYSTEMP1
0004BB	F621	BRNE SYSREPEATLOOP2
0004BC	947A	DEC SYSTEMP1_H
0004BD	9270 017C	STS SYSREPEATTEMP2_H,SYSTEMP1_H
0004BF	F009	BREQ PC + 2
0004C0	CFBF	RJMP SYSREPEATLOOP2
		SYSREPEATLOOPEND2
0004C1	9040 017A	LDS SYSTEMP4,SYSREPEATTEMP1
0004C3	944A	DEC SYSTEMP4
0004C4	9240 017A	STS SYSREPEATTEMP1,SYSTEMP4
0004C6	F009	BREQ PC + 2
0004C7	CFB2	RJMP SYSREPEATLOOP1
		SYSREPEATLOOPEND1
0004C8	9A43	SBI PORTC,3
0004C9	9A41	SBI PORTC,1
0004CA	E003	LDI SYSTEMP3,3
0004CB	B06B	IN SYSTEMP1,PORTD
0004CC	2260	AND SYSTEMP1,SYSTEMP3
0004CD	2C46	MOV SYSTEMP4,SYSTEMP1
0004CE	EF0C	LDI SYSTEMP3,252
0004CF	9080 015C	LDS SYSTEMP2,ILI9341SENDWORD_H
0004D1	2280	AND SYSTEMP2,SYSTEMP3
0004D2	2C68	MOV SYSTEMP1,SYSTEMP2
0004D3	2864	OR SYSTEMP1,SYSTEMP4
0004D4	B86B	OUT PORTD,SYSTEMP1
0004D5	EF0C	LDI SYSTEMP3,252
0004D6	B065	IN SYSTEMP1,PORTB
0004D7	2260	AND SYSTEMP1,SYSTEMP3
0004D8	2C46	MOV SYSTEMP4,SYSTEMP1
0004D9	E003	LDI SYSTEMP3,3
0004DA	9080 015C	LDS SYSTEMP2,ILI9341SENDWORD_H
0004DC	2280	AND SYSTEMP2,SYSTEMP3
0004DD	2C68	MOV SYSTEMP1,SYSTEMP2
0004DE	2864	OR SYSTEMP1,SYSTEMP4
0004DF	B865	OUT PORTB,SYSTEMP1
0004E0	9841	CBI PORTC,1
0004E1	9A41	SBI PORTC,1
0004E2	E003	LDI SYSTEMP3,3
0004E3	B06B	IN SYSTEMP1,PORTD
0004E4	2260	AND SYSTEMP1,SYSTEMP3
0004E5	2C46	MOV SYSTEMP4,SYSTEMP1
0004E6	EF0C	LDI SYSTEMP3,252
0004E7	9080 015B	LDS SYSTEMP2,ILI9341SENDWORD
0004E9	2280	AND SYSTEMP2,SYSTEMP3
0004EA	2C68	MOV SYSTEMP1,SYSTEMP2
0004EB	E050	LDI SYSVALUECOPY,0
0004EC	2E75	MOV SYSTEMP1_H,SYSVALUECOPY
0004ED	2864	OR SYSTEMP1,SYSTEMP4
0004EE	B86B	OUT PORTD,SYSTEMP1
0004EF	EF0C	LDI SYSTEMP3,252
0004F0	B065	IN SYSTEMP1,PORTB
0004F1	2260	AND SYSTEMP1,SYSTEMP3
0004F2	2C46	MOV SYSTEMP4,SYSTEMP1
0004F3	E003	LDI SYSTEMP3,3
0004F4	9080 015B	LDS SYSTEMP2,ILI9341SENDWORD
0004F6	2280	AND SYSTEMP2,SYSTEMP3
0004F7	2C68	MOV SYSTEMP1,SYSTEMP2
0004F8	E050	LDI SYSVALUECOPY,0
0004F9	2E75	MOV SYSTEMP1_H,SYSVALUECOPY
0004FA	2864	OR SYSTEMP1,SYSTEMP4
0004FB	B865	OUT PORTB,SYSTEMP1
0004FC	9841	CBI PORTC,1
0004FD	9A41	SBI PORTC,1
0004FE	9508	RET


		GLCDDRAWCHAR_ILI9341
0004FF	9060 0133	LDS SYSTEMP1,CHARCODE
000501	E00F	LDI SYSTEMP3,15
000502	1A60	SUB SYSTEMP1,SYSTEMP3
000503	9260 0133	STS CHARCODE,SYSTEMP1
000505	E050	LDI SYSVALUECOPY,0
000506	9350 0134	STS CHARCOL,SYSVALUECOPY
000508	9350 0135	STS CHARCOL_H,SYSVALUECOPY
		SYSSELECT3CASE1
00050A	9160 0149	LDS SYSCALCTEMPA,GLCDFNTDEFAULTSIZE
00050C	3061	CPI SYSCALCTEMPA,1
00050D	F501	BRNE SYSSELECT3CASE2
00050E	9060 0133	LDS SYSTEMP1,CHARCODE
000510	E100	LDI SYSTEMP3,16
000511	1A60	SUB SYSTEMP1,SYSTEMP3
000512	9260 0133	STS CHARCODE,SYSTEMP1
000514	91A0 0133	LDS SYSSTRINGA,CHARCODE
000516	D435	RCALL OLEDFONT1INDEX
000517	9200 0167	STS LOCALCHARCODE,SYSBYTETEMPX
000519	91A0 0133	LDS SYSSTRINGA,CHARCODE
00051B	D46C	RCALL OLEDFONT1INDEX_H
00051C	9200 0168	STS LOCALCHARCODE_H,SYSBYTETEMPX
00051E	91A0 0167	LDS SYSSTRINGA,LOCALCHARCODE
000520	91B0 0168	LDS SYSSTRINGA_H,LOCALCHARCODE_H
000522	D33B	RCALL OLEDFONT1DATA
000523	9200 013A	STS COLSPERFONT,SYSBYTETEMPX
000525	9060 013A	LDS SYSTEMP1,COLSPERFONT
000527	9463	INC SYSTEMP1
000528	9260 014A	STS GLCDFONTWIDTH,SYSTEMP1
00052A	E057	LDI SYSVALUECOPY,7
00052B	9350 0174	STS ROWSPERFONT,SYSVALUECOPY
00052D	C01B	RJMP SYSSELECTEND3
		SYSSELECT3CASE2
00052E	9160 0149	LDS SYSCALCTEMPA,GLCDFNTDEFAULTSIZE
000530	3062	CPI SYSCALCTEMPA,2
000531	F4B9	BRNE SYSSELECTEND3
000532	9060 0133	LDS SYSTEMP1,CHARCODE
000534	E101	LDI SYSTEMP3,17
000535	1A60	SUB SYSTEMP1,SYSTEMP3
000536	9260 0133	STS CHARCODE,SYSTEMP1
000538	9160 0133	LDS SYSWORDTEMPA,CHARCODE
00053A	E070	LDI SYSWORDTEMPA_H,0
00053B	E1C4	LDI SYSWORDTEMPB,20
00053C	E0D0	LDI SYSWORDTEMPB_H,0
00053D	940E 0E92	CALL SYSMULTSUB16
00053F	9200 0167	STS LOCALCHARCODE,SYSWORDTEMPX
000541	9210 0168	STS LOCALCHARCODE_H,SYSWORDTEMPX_H
000543	E059	LDI SYSVALUECOPY,9
000544	9350 013A	STS COLSPERFONT,SYSVALUECOPY
000546	E05F	LDI SYSVALUECOPY,15
000547	9350 0174	STS ROWSPERFONT,SYSVALUECOPY
		SYSSELECTEND3
000549	EF5F	LDI SYSVALUECOPY,255
00054A	9350 013B	STS CURRCHARCOL,SYSVALUECOPY
00054C	9160 013A	LDS SYSCALCTEMPA,COLSPERFONT
00054E	3060	CPI SYSCALCTEMPA,0
00054F	F408	BRSH ENDIF14
000550	C0F4	RJMP SYSFORLOOPEND6
		ENDIF14
		SYSFORLOOP6
000551	9060 013B	LDS SYSTEMP1,CURRCHARCOL
000553	9463	INC SYSTEMP1
000554	9260 013B	STS CURRCHARCOL,SYSTEMP1
000556	9060 0167	LDS SYSTEMP1,LOCALCHARCODE
000558	9463	INC SYSTEMP1
000559	9260 0167	STS LOCALCHARCODE,SYSTEMP1
00055B	9060 0168	LDS SYSTEMP1,LOCALCHARCODE_H
00055D	F409	BRNE PC + 2
00055E	9463	INC SYSTEMP1
00055F	9260 0168	STS LOCALCHARCODE_H,SYSTEMP1
		SYSSELECT4CASE1
000561	9160 0149	LDS SYSCALCTEMPA,GLCDFNTDEFAULTSIZE
000563	3061	CPI SYSCALCTEMPA,1
000564	F441	BRNE SYSSELECT4CASE2
000565	91A0 0167	LDS SYSSTRINGA,LOCALCHARCODE
000567	91B0 0168	LDS SYSSTRINGA_H,LOCALCHARCODE_H
000569	D2F4	RCALL OLEDFONT1DATA
00056A	9200 013D	STS CURRCHARVAL,SYSBYTETEMPX
00056C	C00B	RJMP SYSSELECTEND4
		SYSSELECT4CASE2
00056D	9160 0149	LDS SYSCALCTEMPA,GLCDFNTDEFAULTSIZE
00056F	3062	CPI SYSCALCTEMPA,2
000570	F439	BRNE SYSSELECTEND4
000571	91A0 0167	LDS SYSSTRINGA,LOCALCHARCODE
000573	91B0 0168	LDS SYSSTRINGA_H,LOCALCHARCODE_H
000575	D44E	RCALL OLEDFONT2
000576	9200 013D	STS CURRCHARVAL,SYSBYTETEMPX
		SYSSELECTEND4
000578	EF5F	LDI SYSVALUECOPY,255
000579	9350 013C	STS CURRCHARROW,SYSVALUECOPY
00057B	9160 0174	LDS SYSCALCTEMPA,ROWSPERFONT
00057D	3060	CPI SYSCALCTEMPA,0
00057E	F408	BRSH ENDIF15
00057F	C0BE	RJMP SYSFORLOOPEND7
		ENDIF15
		SYSFORLOOP7
000580	9060 013C	LDS SYSTEMP1,CURRCHARROW
000582	9463	INC SYSTEMP1
000583	9260 013C	STS CURRCHARROW,SYSTEMP1
000585	9050 013D	LDS SYSBITTEST,CURRCHARVAL
000587	FC50	SBRC SYSBITTEST,0
000588	C024	RJMP ELSE16_1
000589	9060 0136	LDS SYSTEMP1,CHARLOCX
00058B	9080 013B	LDS SYSTEMP2,CURRCHARCOL
00058D	0C68	ADD SYSTEMP1,SYSTEMP2
00058E	9260 0154	STS GLCDX,SYSTEMP1
000590	9060 0137	LDS SYSTEMP1,CHARLOCX_H
000592	E000	LDI SYSTEMP3,0
000593	1E60	ADC SYSTEMP1,SYSTEMP3
000594	9260 0155	STS GLCDX_H,SYSTEMP1
000596	9060 0138	LDS SYSTEMP1,CHARLOCY
000598	9080 013C	LDS SYSTEMP2,CURRCHARROW
00059A	0C68	ADD SYSTEMP1,SYSTEMP2
00059B	9260 0156	STS GLCDY,SYSTEMP1
00059D	9060 0139	LDS SYSTEMP1,CHARLOCY_H
00059F	E000	LDI SYSTEMP3,0
0005A0	1E60	ADC SYSTEMP1,SYSTEMP3
0005A1	9260 0157	STS GLCDY_H,SYSTEMP1
0005A3	9150 0140	LDS SYSVALUECOPY,GLCDBACKGROUND
0005A5	9350 0142	STS GLCDCOLOUR,SYSVALUECOPY
0005A7	9150 0141	LDS SYSVALUECOPY,GLCDBACKGROUND_H
0005A9	9350 0143	STS GLCDCOLOUR_H,SYSVALUECOPY
0005AB	D7FC	RCALL PSET_ILI9341
0005AC	C023	RJMP ENDIF16
		ELSE16_1
0005AD	9060 0136	LDS SYSTEMP1,CHARLOCX
0005AF	9080 013B	LDS SYSTEMP2,CURRCHARCOL
0005B1	0C68	ADD SYSTEMP1,SYSTEMP2
0005B2	9260 0154	STS GLCDX,SYSTEMP1
0005B4	9060 0137	LDS SYSTEMP1,CHARLOCX_H
0005B6	E000	LDI SYSTEMP3,0
0005B7	1E60	ADC SYSTEMP1,SYSTEMP3
0005B8	9260 0155	STS GLCDX_H,SYSTEMP1
0005BA	9060 0138	LDS SYSTEMP1,CHARLOCY
0005BC	9080 013C	LDS SYSTEMP2,CURRCHARROW
0005BE	0C68	ADD SYSTEMP1,SYSTEMP2
0005BF	9260 0156	STS GLCDY,SYSTEMP1
0005C1	9060 0139	LDS SYSTEMP1,CHARLOCY_H
0005C3	E000	LDI SYSTEMP3,0
0005C4	1E60	ADC SYSTEMP1,SYSTEMP3
0005C5	9260 0157	STS GLCDY_H,SYSTEMP1
0005C7	9150 015D	LDS SYSVALUECOPY,LINECOLOUR
0005C9	9350 0142	STS GLCDCOLOUR,SYSVALUECOPY
0005CB	9150 015E	LDS SYSVALUECOPY,LINECOLOUR_H
0005CD	9350 0143	STS GLCDCOLOUR_H,SYSVALUECOPY
0005CF	D7D8	RCALL PSET_ILI9341
		ENDIF16
0005D0	9150 013D	LDS SYSVALUECOPY,CURRCHARVAL
0005D2	9557	ROR SYSVALUECOPY
0005D3	9350 013D	STS CURRCHARVAL,SYSVALUECOPY
0005D5	9160 0149	LDS SYSBYTETEMPA,GLCDFNTDEFAULTSIZE
0005D7	E0C2	LDI SYSBYTETEMPB,2
0005D8	940E 0E7C	CALL SYSCOMPEQUAL
0005DA	2C60	MOV SYSTEMP1,SYSBYTETEMPX
0005DB	9160 013C	LDS SYSBYTETEMPA,CURRCHARROW
0005DD	E0C7	LDI SYSBYTETEMPB,7
0005DE	940E 0E7C	CALL SYSCOMPEQUAL
0005E0	2D00	MOV SYSTEMP3,SYSBYTETEMPX
0005E1	2106	AND SYSTEMP3,SYSTEMP1
0005E2	2E80	MOV SYSTEMP2,SYSTEMP3
0005E3	FE80	SBRS SYSTEMP2,0
0005E4	C012	RJMP ENDIF17
0005E5	9060 0167	LDS SYSTEMP1,LOCALCHARCODE
0005E7	9463	INC SYSTEMP1
0005E8	9260 0167	STS LOCALCHARCODE,SYSTEMP1
0005EA	9060 0168	LDS SYSTEMP1,LOCALCHARCODE_H
0005EC	F409	BRNE PC + 2
0005ED	9463	INC SYSTEMP1
0005EE	9260 0168	STS LOCALCHARCODE_H,SYSTEMP1
0005F0	91A0 0167	LDS SYSSTRINGA,LOCALCHARCODE
0005F2	91B0 0168	LDS SYSSTRINGA_H,LOCALCHARCODE_H
0005F4	D3CF	RCALL OLEDFONT2
0005F5	9200 013D	STS CURRCHARVAL,SYSBYTETEMPX
		ENDIF17
0005F7	9160 013B	LDS SYSCALCTEMPA,CURRCHARCOL
0005F9	91C0 013A	LDS SYSCALCTEMPB,COLSPERFONT
0005FB	176C	CP SYSCALCTEMPA,SYSCALCTEMPB
0005FC	F5D1	BRNE ENDIF18
0005FD	9060 0136	LDS SYSTEMP1,CHARLOCX
0005FF	9080 013B	LDS SYSTEMP2,CURRCHARCOL
000601	0C68	ADD SYSTEMP1,SYSTEMP2
000602	9260 0152	STS GLCDTEMP,SYSTEMP1
000604	9060 0137	LDS SYSTEMP1,CHARLOCX_H
000606	E000	LDI SYSTEMP3,0
000607	1E60	ADC SYSTEMP1,SYSTEMP3
000608	9260 0153	STS GLCDTEMP_H,SYSTEMP1
00060A	9160 0149	LDS SYSCALCTEMPA,GLCDFNTDEFAULTSIZE
00060C	3062	CPI SYSCALCTEMPA,2
00060D	F459	BRNE ENDIF21
00060E	9060 0152	LDS SYSTEMP1,GLCDTEMP
000610	9463	INC SYSTEMP1
000611	9260 0152	STS GLCDTEMP,SYSTEMP1
000613	9060 0153	LDS SYSTEMP1,GLCDTEMP_H
000615	F409	BRNE PC + 2
000616	9463	INC SYSTEMP1
000617	9260 0153	STS GLCDTEMP_H,SYSTEMP1
		ENDIF21
000619	9150 0152	LDS SYSVALUECOPY,GLCDTEMP
00061B	9350 0154	STS GLCDX,SYSVALUECOPY
00061D	9150 0153	LDS SYSVALUECOPY,GLCDTEMP_H
00061F	9350 0155	STS GLCDX_H,SYSVALUECOPY
000621	9060 0138	LDS SYSTEMP1,CHARLOCY
000623	9080 013C	LDS SYSTEMP2,CURRCHARROW
000625	0C68	ADD SYSTEMP1,SYSTEMP2
000626	9260 0156	STS GLCDY,SYSTEMP1
000628	9060 0139	LDS SYSTEMP1,CHARLOCY_H
00062A	E000	LDI SYSTEMP3,0
00062B	1E60	ADC SYSTEMP1,SYSTEMP3
00062C	9260 0157	STS GLCDY_H,SYSTEMP1
00062E	9150 0140	LDS SYSVALUECOPY,GLCDBACKGROUND
000630	9350 0142	STS GLCDCOLOUR,SYSVALUECOPY
000632	9150 0141	LDS SYSVALUECOPY,GLCDBACKGROUND_H
000634	9350 0143	STS GLCDCOLOUR_H,SYSVALUECOPY
000636	D771	RCALL PSET_ILI9341
		ENDIF18
000637	9160 013C	LDS SYSCALCTEMPA,CURRCHARROW
000639	91C0 0174	LDS SYSCALCTEMPB,ROWSPERFONT
00063B	176C	CP SYSCALCTEMPA,SYSCALCTEMPB
00063C	F408	BRSH ENDIF19
00063D	CF42	RJMP SYSFORLOOP7
		ENDIF19
		SYSFORLOOPEND7
00063E	9160 013B	LDS SYSCALCTEMPA,CURRCHARCOL
000640	91C0 013A	LDS SYSCALCTEMPB,COLSPERFONT
000642	176C	CP SYSCALCTEMPA,SYSCALCTEMPB
000643	F408	BRSH ENDIF20
000644	CF0C	RJMP SYSFORLOOP6
		ENDIF20
		SYSFORLOOPEND6
000645	9508	RET


		GLCDPRINT4
000646	91A0 0178	LDS SYSSTRINGA,SYSLCDPRINTDATAHANDLER
000648	91B0 0179	LDS SYSSTRINGA_H,SYSLCDPRINTDATAHANDLER_H
00064A	915C	LD SYSVALUECOPY,X
00064B	9350 014D	STS GLCDPRINTLEN,SYSVALUECOPY
00064D	9160 014D	LDS SYSCALCTEMPA,GLCDPRINTLEN
00064F	2366	TST SYSCALCTEMPA
000650	F409	BRNE ENDIF1
000651	9508	RET
		ENDIF1
000652	9150 014A	LDS SYSVALUECOPY,GLCDFONTWIDTH
000654	9350 016D	STS OLDGLCDFONTWIDTH,SYSVALUECOPY
000656	9150 0170	LDS SYSVALUECOPY,PRINTLOCX
000658	9350 014E	STS GLCDPRINTLOC,SYSVALUECOPY
00065A	9150 0171	LDS SYSVALUECOPY,PRINTLOCX_H
00065C	9350 014F	STS GLCDPRINTLOC_H,SYSVALUECOPY
00065E	E050	LDI SYSVALUECOPY,0
00065F	9350 0150	STS GLCDPRINT_STRING_COUNTER,SYSVALUECOPY
000661	9160 014D	LDS SYSCALCTEMPA,GLCDPRINTLEN
000663	3061	CPI SYSCALCTEMPA,1
000664	F408	BRSH ENDIF2
000665	C049	RJMP SYSFORLOOPEND1
		ENDIF2
		SYSFORLOOP1
000666	9060 0150	LDS SYSTEMP1,GLCDPRINT_STRING_COUNTER
000668	9463	INC SYSTEMP1
000669	9260 0150	STS GLCDPRINT_STRING_COUNTER,SYSTEMP1
00066B	9150 014E	LDS SYSVALUECOPY,GLCDPRINTLOC
00066D	9350 0136	STS CHARLOCX,SYSVALUECOPY
00066F	9150 014F	LDS SYSVALUECOPY,GLCDPRINTLOC_H
000671	9350 0137	STS CHARLOCX_H,SYSVALUECOPY
000673	9150 0172	LDS SYSVALUECOPY,PRINTLOCY
000675	9350 0138	STS CHARLOCY,SYSVALUECOPY
000677	9150 0173	LDS SYSVALUECOPY,PRINTLOCY_H
000679	9350 0139	STS CHARLOCY_H,SYSVALUECOPY
00067B	9060 0178	LDS SYSTEMP1,SYSLCDPRINTDATAHANDLER
00067D	9080 0150	LDS SYSTEMP2,GLCDPRINT_STRING_COUNTER
00067F	0C68	ADD SYSTEMP1,SYSTEMP2
000680	2DA6	MOV SYSSTRINGA,SYSTEMP1
000681	9060 0179	LDS SYSTEMP1,SYSLCDPRINTDATAHANDLER_H
000683	E000	LDI SYSTEMP3,0
000684	1E60	ADC SYSTEMP1,SYSTEMP3
000685	2DB6	MOV SYSSTRINGA_H,SYSTEMP1
000686	915C	LD SYSVALUECOPY,X
000687	9350 0133	STS CHARCODE,SYSVALUECOPY
000689	DE75	RCALL GLCDDRAWCHAR_ILI9341
00068A	9160 014A	LDS SYSBYTETEMPA,GLCDFONTWIDTH
00068C	91C0 0149	LDS SYSBYTETEMPB,GLCDFNTDEFAULTSIZE
00068E	9F6C	MUL SYSBYTETEMPA,SYSBYTETEMPB
00068F	2C60	MOV SYSTEMP1,SYSBYTETEMPX
000690	9100 014E	LDS SYSTEMP3,GLCDPRINTLOC
000692	0D06	ADD SYSTEMP3,SYSTEMP1
000693	2E80	MOV SYSTEMP2,SYSTEMP3
000694	9060 014F	LDS SYSTEMP1,GLCDPRINTLOC_H
000696	E000	LDI SYSTEMP3,0
000697	1E60	ADC SYSTEMP1,SYSTEMP3
000698	2C96	MOV SYSTEMP2_H,SYSTEMP1
000699	9100 0149	LDS SYSTEMP3,GLCDFNTDEFAULTSIZE
00069B	0E80	ADD SYSTEMP2,SYSTEMP3
00069C	2C68	MOV SYSTEMP1,SYSTEMP2
00069D	E000	LDI SYSTEMP3,0
00069E	1E90	ADC SYSTEMP2_H,SYSTEMP3
00069F	2C79	MOV SYSTEMP1_H,SYSTEMP2_H
0006A0	E001	LDI SYSTEMP3,1
0006A1	1A60	SUB SYSTEMP1,SYSTEMP3
0006A2	9260 014E	STS GLCDPRINTLOC,SYSTEMP1
0006A4	E000	LDI SYSTEMP3,0
0006A5	0A70	SBC SYSTEMP1_H,SYSTEMP3
0006A6	9270 014F	STS GLCDPRINTLOC_H,SYSTEMP1_H
0006A8	9160 0150	LDS SYSCALCTEMPA,GLCDPRINT_STRING_COUNTER
0006AA	91C0 014D	LDS SYSCALCTEMPB,GLCDPRINTLEN
0006AC	176C	CP SYSCALCTEMPA,SYSCALCTEMPB
0006AD	F408	BRSH ENDIF3
0006AE	CFB7	RJMP SYSFORLOOP1
		ENDIF3
		SYSFORLOOPEND1
0006AF	9150 016D	LDS SYSVALUECOPY,OLDGLCDFONTWIDTH
0006B1	9350 014A	STS GLCDFONTWIDTH,SYSVALUECOPY
0006B3	9508	RET


		INITGLCD_ILI9341
0006B4	9A57	SBI DDRD,7
0006B5	9A56	SBI DDRD,6
0006B6	9A55	SBI DDRD,5
0006B7	9A54	SBI DDRD,4
0006B8	9A53	SBI DDRD,3
0006B9	9A52	SBI DDRD,2
0006BA	9A21	SBI DDRB,1
0006BB	9A20	SBI DDRB,0
0006BC	9A38	SBI DDRC,0
0006BD	9A39	SBI DDRC,1
0006BE	9A3A	SBI DDRC,2
0006BF	9A3B	SBI DDRC,3
0006C0	9A3C	SBI DDRC,4
0006C1	9A40	SBI PORTC,0
0006C2	9A41	SBI PORTC,1
0006C3	9A42	SBI PORTC,2
0006C4	9A43	SBI PORTC,3
0006C5	9A44	SBI PORTC,4
0006C6	E3D2	LDI SYSWAITTEMPMS,50
0006C7	E0E0	LDI SYSWAITTEMPMS_H,0
0006C8	DD6E	RCALL DELAY_MS
0006C9	9A44	SBI PORTC,4
0006CA	E0DF	LDI SYSWAITTEMPMS,15
0006CB	E0E0	LDI SYSWAITTEMPMS_H,0
0006CC	DD6A	RCALL DELAY_MS
0006CD	9844	CBI PORTC,4
0006CE	E590	LDI DELAYTEMP,80
		DELAYUS2
0006CF	959A	DEC DELAYTEMP
0006D0	F7F1	BRNE DELAYUS2
0006D1	9A44	SBI PORTC,4
0006D2	E0DF	LDI SYSWAITTEMPMS,15
0006D3	E0E0	LDI SYSWAITTEMPMS_H,0
0006D4	DD62	RCALL DELAY_MS
0006D5	EE5F	LDI SYSVALUECOPY,239
0006D6	9350 015A	STS ILI9341SENDBYTE,SYSVALUECOPY
0006D8	D6F9	RCALL SENDCOMMAND_ILI9341
0006D9	E053	LDI SYSVALUECOPY,3
0006DA	9350 015A	STS ILI9341SENDBYTE,SYSVALUECOPY
0006DC	D713	RCALL SENDDATA_ILI9341
0006DD	E850	LDI SYSVALUECOPY,128
0006DE	9350 015A	STS ILI9341SENDBYTE,SYSVALUECOPY
0006E0	D70F	RCALL SENDDATA_ILI9341
0006E1	E052	LDI SYSVALUECOPY,2
0006E2	9350 015A	STS ILI9341SENDBYTE,SYSVALUECOPY
0006E4	D70B	RCALL SENDDATA_ILI9341
0006E5	EC5F	LDI SYSVALUECOPY,207
0006E6	9350 015A	STS ILI9341SENDBYTE,SYSVALUECOPY
0006E8	D6E9	RCALL SENDCOMMAND_ILI9341
0006E9	E050	LDI SYSVALUECOPY,0
0006EA	9350 015A	STS ILI9341SENDBYTE,SYSVALUECOPY
0006EC	D703	RCALL SENDDATA_ILI9341
0006ED	EC51	LDI SYSVALUECOPY,193
0006EE	9350 015A	STS ILI9341SENDBYTE,SYSVALUECOPY
0006F0	D6FF	RCALL SENDDATA_ILI9341
0006F1	E350	LDI SYSVALUECOPY,48
0006F2	9350 015A	STS ILI9341SENDBYTE,SYSVALUECOPY
0006F4	D6FB	RCALL SENDDATA_ILI9341
0006F5	EE5D	LDI SYSVALUECOPY,237
0006F6	9350 015A	STS ILI9341SENDBYTE,SYSVALUECOPY
0006F8	D6D9	RCALL SENDCOMMAND_ILI9341
0006F9	E654	LDI SYSVALUECOPY,100
0006FA	9350 015A	STS ILI9341SENDBYTE,SYSVALUECOPY
0006FC	D6F3	RCALL SENDDATA_ILI9341
0006FD	E053	LDI SYSVALUECOPY,3
0006FE	9350 015A	STS ILI9341SENDBYTE,SYSVALUECOPY
000700	D6EF	RCALL SENDDATA_ILI9341
000701	E152	LDI SYSVALUECOPY,18
000702	9350 015A	STS ILI9341SENDBYTE,SYSVALUECOPY
000704	D6EB	RCALL SENDDATA_ILI9341
000705	E851	LDI SYSVALUECOPY,129
000706	9350 015A	STS ILI9341SENDBYTE,SYSVALUECOPY
000708	D6E7	RCALL SENDDATA_ILI9341
000709	EE58	LDI SYSVALUECOPY,232
00070A	9350 015A	STS ILI9341SENDBYTE,SYSVALUECOPY
00070C	D6C5	RCALL SENDCOMMAND_ILI9341
00070D	E855	LDI SYSVALUECOPY,133
00070E	9350 015A	STS ILI9341SENDBYTE,SYSVALUECOPY
000710	D6DF	RCALL SENDDATA_ILI9341
000711	E050	LDI SYSVALUECOPY,0
000712	9350 015A	STS ILI9341SENDBYTE,SYSVALUECOPY
000714	D6DB	RCALL SENDDATA_ILI9341
000715	E758	LDI SYSVALUECOPY,120
000716	9350 015A	STS ILI9341SENDBYTE,SYSVALUECOPY
000718	D6D7	RCALL SENDDATA_ILI9341
000719	EC5B	LDI SYSVALUECOPY,203
00071A	9350 015A	STS ILI9341SENDBYTE,SYSVALUECOPY
00071C	D6B5	RCALL SENDCOMMAND_ILI9341
00071D	E359	LDI SYSVALUECOPY,57
00071E	9350 015A	STS ILI9341SENDBYTE,SYSVALUECOPY
000720	D6CF	RCALL SENDDATA_ILI9341
000721	E25C	LDI SYSVALUECOPY,44
000722	9350 015A	STS ILI9341SENDBYTE,SYSVALUECOPY
000724	D6CB	RCALL SENDDATA_ILI9341
000725	E050	LDI SYSVALUECOPY,0
000726	9350 015A	STS ILI9341SENDBYTE,SYSVALUECOPY
000728	D6C7	RCALL SENDDATA_ILI9341
000729	E354	LDI SYSVALUECOPY,52
00072A	9350 015A	STS ILI9341SENDBYTE,SYSVALUECOPY
00072C	D6C3	RCALL SENDDATA_ILI9341
00072D	E052	LDI SYSVALUECOPY,2
00072E	9350 015A	STS ILI9341SENDBYTE,SYSVALUECOPY
000730	D6BF	RCALL SENDDATA_ILI9341
000731	EF57	LDI SYSVALUECOPY,247
000732	9350 015A	STS ILI9341SENDBYTE,SYSVALUECOPY
000734	D69D	RCALL SENDCOMMAND_ILI9341
000735	E250	LDI SYSVALUECOPY,32
000736	9350 015A	STS ILI9341SENDBYTE,SYSVALUECOPY
000738	D6B7	RCALL SENDDATA_ILI9341
000739	EE5A	LDI SYSVALUECOPY,234
00073A	9350 015A	STS ILI9341SENDBYTE,SYSVALUECOPY
00073C	D695	RCALL SENDCOMMAND_ILI9341
00073D	E050	LDI SYSVALUECOPY,0
00073E	9350 015A	STS ILI9341SENDBYTE,SYSVALUECOPY
000740	D6AF	RCALL SENDDATA_ILI9341
000741	E050	LDI SYSVALUECOPY,0
000742	9350 015A	STS ILI9341SENDBYTE,SYSVALUECOPY
000744	D6AB	RCALL SENDDATA_ILI9341
000745	EC50	LDI SYSVALUECOPY,192
000746	9350 015A	STS ILI9341SENDBYTE,SYSVALUECOPY
000748	D689	RCALL SENDCOMMAND_ILI9341
000749	E25B	LDI SYSVALUECOPY,43
00074A	9350 015A	STS ILI9341SENDBYTE,SYSVALUECOPY
00074C	D6A3	RCALL SENDDATA_ILI9341
00074D	EC51	LDI SYSVALUECOPY,193
00074E	9350 015A	STS ILI9341SENDBYTE,SYSVALUECOPY
000750	D681	RCALL SENDCOMMAND_ILI9341
000751	E150	LDI SYSVALUECOPY,16
000752	9350 015A	STS ILI9341SENDBYTE,SYSVALUECOPY
000754	D69B	RCALL SENDDATA_ILI9341
000755	EC55	LDI SYSVALUECOPY,197
000756	9350 015A	STS ILI9341SENDBYTE,SYSVALUECOPY
000758	D679	RCALL SENDCOMMAND_ILI9341
000759	E35E	LDI SYSVALUECOPY,62
00075A	9350 015A	STS ILI9341SENDBYTE,SYSVALUECOPY
00075C	D693	RCALL SENDDATA_ILI9341
00075D	E258	LDI SYSVALUECOPY,40
00075E	9350 015A	STS ILI9341SENDBYTE,SYSVALUECOPY
000760	D68F	RCALL SENDDATA_ILI9341
000761	EC57	LDI SYSVALUECOPY,199
000762	9350 015A	STS ILI9341SENDBYTE,SYSVALUECOPY
000764	D66D	RCALL SENDCOMMAND_ILI9341
000765	E856	LDI SYSVALUECOPY,134
000766	9350 015A	STS ILI9341SENDBYTE,SYSVALUECOPY
000768	D687	RCALL SENDDATA_ILI9341
000769	E356	LDI SYSVALUECOPY,54
00076A	9350 015A	STS ILI9341SENDBYTE,SYSVALUECOPY
00076C	D665	RCALL SENDCOMMAND_ILI9341
00076D	E458	LDI SYSVALUECOPY,72
00076E	9350 015A	STS ILI9341SENDBYTE,SYSVALUECOPY
000770	D67F	RCALL SENDDATA_ILI9341
000771	E35A	LDI SYSVALUECOPY,58
000772	9350 015A	STS ILI9341SENDBYTE,SYSVALUECOPY
000774	D65D	RCALL SENDCOMMAND_ILI9341
000775	E555	LDI SYSVALUECOPY,85
000776	9350 015A	STS ILI9341SENDBYTE,SYSVALUECOPY
000778	D677	RCALL SENDDATA_ILI9341
000779	EB51	LDI SYSVALUECOPY,177
00077A	9350 015A	STS ILI9341SENDBYTE,SYSVALUECOPY
00077C	D655	RCALL SENDCOMMAND_ILI9341
00077D	E050	LDI SYSVALUECOPY,0
00077E	9350 015A	STS ILI9341SENDBYTE,SYSVALUECOPY
000780	D66F	RCALL SENDDATA_ILI9341
000781	E158	LDI SYSVALUECOPY,24
000782	9350 015A	STS ILI9341SENDBYTE,SYSVALUECOPY
000784	D66B	RCALL SENDDATA_ILI9341
000785	EB56	LDI SYSVALUECOPY,182
000786	9350 015A	STS ILI9341SENDBYTE,SYSVALUECOPY
000788	D649	RCALL SENDCOMMAND_ILI9341
000789	E058	LDI SYSVALUECOPY,8
00078A	9350 015A	STS ILI9341SENDBYTE,SYSVALUECOPY
00078C	D663	RCALL SENDDATA_ILI9341
00078D	E852	LDI SYSVALUECOPY,130
00078E	9350 015A	STS ILI9341SENDBYTE,SYSVALUECOPY
000790	D65F	RCALL SENDDATA_ILI9341
000791	E257	LDI SYSVALUECOPY,39
000792	9350 015A	STS ILI9341SENDBYTE,SYSVALUECOPY
000794	D65B	RCALL SENDDATA_ILI9341
000795	EF52	LDI SYSVALUECOPY,242
000796	9350 015A	STS ILI9341SENDBYTE,SYSVALUECOPY
000798	D639	RCALL SENDCOMMAND_ILI9341
000799	E050	LDI SYSVALUECOPY,0
00079A	9350 015A	STS ILI9341SENDBYTE,SYSVALUECOPY
00079C	D653	RCALL SENDDATA_ILI9341
00079D	E256	LDI SYSVALUECOPY,38
00079E	9350 015A	STS ILI9341SENDBYTE,SYSVALUECOPY
0007A0	D631	RCALL SENDCOMMAND_ILI9341
0007A1	E051	LDI SYSVALUECOPY,1
0007A2	9350 015A	STS ILI9341SENDBYTE,SYSVALUECOPY
0007A4	D64B	RCALL SENDDATA_ILI9341
0007A5	EE50	LDI SYSVALUECOPY,224
0007A6	9350 015A	STS ILI9341SENDBYTE,SYSVALUECOPY
0007A8	D629	RCALL SENDCOMMAND_ILI9341
0007A9	E05F	LDI SYSVALUECOPY,15
0007AA	9350 015A	STS ILI9341SENDBYTE,SYSVALUECOPY
0007AC	D643	RCALL SENDDATA_ILI9341
0007AD	E351	LDI SYSVALUECOPY,49
0007AE	9350 015A	STS ILI9341SENDBYTE,SYSVALUECOPY
0007B0	D63F	RCALL SENDDATA_ILI9341
0007B1	E25B	LDI SYSVALUECOPY,43
0007B2	9350 015A	STS ILI9341SENDBYTE,SYSVALUECOPY
0007B4	D63B	RCALL SENDDATA_ILI9341
0007B5	E05C	LDI SYSVALUECOPY,12
0007B6	9350 015A	STS ILI9341SENDBYTE,SYSVALUECOPY
0007B8	D637	RCALL SENDDATA_ILI9341
0007B9	E05E	LDI SYSVALUECOPY,14
0007BA	9350 015A	STS ILI9341SENDBYTE,SYSVALUECOPY
0007BC	D633	RCALL SENDDATA_ILI9341
0007BD	E058	LDI SYSVALUECOPY,8
0007BE	9350 015A	STS ILI9341SENDBYTE,SYSVALUECOPY
0007C0	D62F	RCALL SENDDATA_ILI9341
0007C1	E45E	LDI SYSVALUECOPY,78
0007C2	9350 015A	STS ILI9341SENDBYTE,SYSVALUECOPY
0007C4	D62B	RCALL SENDDATA_ILI9341
0007C5	EF51	LDI SYSVALUECOPY,241
0007C6	9350 015A	STS ILI9341SENDBYTE,SYSVALUECOPY
0007C8	D627	RCALL SENDDATA_ILI9341
0007C9	E357	LDI SYSVALUECOPY,55
0007CA	9350 015A	STS ILI9341SENDBYTE,SYSVALUECOPY
0007CC	D623	RCALL SENDDATA_ILI9341
0007CD	E057	LDI SYSVALUECOPY,7
0007CE	9350 015A	STS ILI9341SENDBYTE,SYSVALUECOPY
0007D0	D61F	RCALL SENDDATA_ILI9341
0007D1	E150	LDI SYSVALUECOPY,16
0007D2	9350 015A	STS ILI9341SENDBYTE,SYSVALUECOPY
0007D4	D61B	RCALL SENDDATA_ILI9341
0007D5	E053	LDI SYSVALUECOPY,3
0007D6	9350 015A	STS ILI9341SENDBYTE,SYSVALUECOPY
0007D8	D617	RCALL SENDDATA_ILI9341
0007D9	E05E	LDI SYSVALUECOPY,14
0007DA	9350 015A	STS ILI9341SENDBYTE,SYSVALUECOPY
0007DC	D613	RCALL SENDDATA_ILI9341
0007DD	E059	LDI SYSVALUECOPY,9
0007DE	9350 015A	STS ILI9341SENDBYTE,SYSVALUECOPY
0007E0	D60F	RCALL SENDDATA_ILI9341
0007E1	E050	LDI SYSVALUECOPY,0
0007E2	9350 015A	STS ILI9341SENDBYTE,SYSVALUECOPY
0007E4	D60B	RCALL SENDDATA_ILI9341
0007E5	EE51	LDI SYSVALUECOPY,225
0007E6	9350 015A	STS ILI9341SENDBYTE,SYSVALUECOPY
0007E8	D5E9	RCALL SENDCOMMAND_ILI9341
0007E9	E050	LDI SYSVALUECOPY,0
0007EA	9350 015A	STS ILI9341SENDBYTE,SYSVALUECOPY
0007EC	D603	RCALL SENDDATA_ILI9341
0007ED	E05E	LDI SYSVALUECOPY,14
0007EE	9350 015A	STS ILI9341SENDBYTE,SYSVALUECOPY
0007F0	D5FF	RCALL SENDDATA_ILI9341
0007F1	E154	LDI SYSVALUECOPY,20
0007F2	9350 015A	STS ILI9341SENDBYTE,SYSVALUECOPY
0007F4	D5FB	RCALL SENDDATA_ILI9341
0007F5	E053	LDI SYSVALUECOPY,3
0007F6	9350 015A	STS ILI9341SENDBYTE,SYSVALUECOPY
0007F8	D5F7	RCALL SENDDATA_ILI9341
0007F9	E151	LDI SYSVALUECOPY,17
0007FA	9350 015A	STS ILI9341SENDBYTE,SYSVALUECOPY
0007FC	D5F3	RCALL SENDDATA_ILI9341
0007FD	E057	LDI SYSVALUECOPY,7
0007FE	9350 015A	STS ILI9341SENDBYTE,SYSVALUECOPY
000800	D5EF	RCALL SENDDATA_ILI9341
000801	E351	LDI SYSVALUECOPY,49
000802	9350 015A	STS ILI9341SENDBYTE,SYSVALUECOPY
000804	D5EB	RCALL SENDDATA_ILI9341
000805	EC51	LDI SYSVALUECOPY,193
000806	9350 015A	STS ILI9341SENDBYTE,SYSVALUECOPY
000808	D5E7	RCALL SENDDATA_ILI9341
000809	E458	LDI SYSVALUECOPY,72
00080A	9350 015A	STS ILI9341SENDBYTE,SYSVALUECOPY
00080C	D5E3	RCALL SENDDATA_ILI9341
00080D	E058	LDI SYSVALUECOPY,8
00080E	9350 015A	STS ILI9341SENDBYTE,SYSVALUECOPY
000810	D5DF	RCALL SENDDATA_ILI9341
000811	E05F	LDI SYSVALUECOPY,15
000812	9350 015A	STS ILI9341SENDBYTE,SYSVALUECOPY
000814	D5DB	RCALL SENDDATA_ILI9341
000815	E05C	LDI SYSVALUECOPY,12
000816	9350 015A	STS ILI9341SENDBYTE,SYSVALUECOPY
000818	D5D7	RCALL SENDDATA_ILI9341
000819	E351	LDI SYSVALUECOPY,49
00081A	9350 015A	STS ILI9341SENDBYTE,SYSVALUECOPY
00081C	D5D3	RCALL SENDDATA_ILI9341
00081D	E356	LDI SYSVALUECOPY,54
00081E	9350 015A	STS ILI9341SENDBYTE,SYSVALUECOPY
000820	D5CF	RCALL SENDDATA_ILI9341
000821	E05F	LDI SYSVALUECOPY,15
000822	9350 015A	STS ILI9341SENDBYTE,SYSVALUECOPY
000824	D5CB	RCALL SENDDATA_ILI9341
000825	E151	LDI SYSVALUECOPY,17
000826	9350 015A	STS ILI9341SENDBYTE,SYSVALUECOPY
000828	D5A9	RCALL SENDCOMMAND_ILI9341
000829	E9D6	LDI SYSWAITTEMPMS,150
00082A	E0E0	LDI SYSWAITTEMPMS_H,0
00082B	DC0B	RCALL DELAY_MS
00082C	E259	LDI SYSVALUECOPY,41
00082D	9350 015A	STS ILI9341SENDBYTE,SYSVALUECOPY
00082F	D5A2	RCALL SENDCOMMAND_ILI9341
000830	EF5F	LDI SYSVALUECOPY,255
000831	9350 0140	STS GLCDBACKGROUND,SYSVALUECOPY
000833	9350 0141	STS GLCDBACKGROUND_H,SYSVALUECOPY
000835	EF5F	LDI SYSVALUECOPY,255
000836	9350 014B	STS GLCDFOREGROUND,SYSVALUECOPY
000838	9350 014C	STS GLCDFOREGROUND_H,SYSVALUECOPY
00083A	EF50	LDI SYSVALUECOPY,240
00083B	9350 0146	STS GLCDDEVICEWIDTH,SYSVALUECOPY
00083D	E050	LDI SYSVALUECOPY,0
00083E	9350 0147	STS GLCDDEVICEWIDTH_H,SYSVALUECOPY
000840	E450	LDI SYSVALUECOPY,64
000841	9350 0144	STS GLCDDEVICEHEIGHT,SYSVALUECOPY
000843	E051	LDI SYSVALUECOPY,1
000844	9350 0145	STS GLCDDEVICEHEIGHT_H,SYSVALUECOPY
000846	E055	LDI SYSVALUECOPY,5
000847	9350 014A	STS GLCDFONTWIDTH,SYSVALUECOPY
000849	E050	LDI SYSVALUECOPY,0
00084A	9350 0148	STS GLCDFNTDEFAULT,SYSVALUECOPY
00084C	E051	LDI SYSVALUECOPY,1
00084D	9350 0149	STS GLCDFNTDEFAULTSIZE,SYSVALUECOPY
00084F	E054	LDI SYSVALUECOPY,4
000850	9350 0151	STS GLCDROTATESTATE,SYSVALUECOPY
000852	CBF0	RJMP GLCDCLS_ILI9341


		INITGLCD_SSD1289
000853	9508	RET


		INITSYS
000854	E050	LDI SYSVALUECOPY,0
000855	B955	OUT PORTB,SYSVALUECOPY
000856	E050	LDI SYSVALUECOPY,0
000857	B958	OUT PORTC,SYSVALUECOPY
000858	E050	LDI SYSVALUECOPY,0
000859	B95B	OUT PORTD,SYSVALUECOPY
00085A	9508	RET


		INITUNO
00085B	9850	CBI DDRD,0
00085C	9A51	SBI DDRD,1
00085D	9508	RET


		OLEDFONT1DATA
00085E	2F6A	MOV SYSWORDTEMPA,SYSSTRINGA
00085F	2F7B	MOV SYSWORDTEMPA_H,SYSSTRINGA_H
000860	EAC5	LDI SYSWORDTEMPB,165
000861	E0D1	LDI SYSWORDTEMPB_H,1
000862	D625	RCALL SYSCOMPLESSTHAN16
000863	FE00	SBRS SYSBYTETEMPX,0
000864	9508	RET
000865	EDE6	LDI SYSREADA, LOW(TABLEOLEDFONT1DATA<<1)
000866	E1F0	LDI SYSREADA_H, HIGH(TABLEOLEDFONT1DATA<<1)
000867	0FEA	ADD SYSREADA, SYSSTRINGA
000868	1FFB	ADC SYSREADA_H, SYSSTRINGA_H
000869	95C8	LPM
00086A	9508	RET
		TABLEOLEDFONT1DATA
00086B	01A5 0100 035E 0006 0506 7C28 7C28 0528 2A24 2A7F 0310 1862 0546 4C30 245A	RAW 01A5,0100,035E,0006,0506,7C28,7C28,0528,2A24,2A7F,0310,1862,0546,4C30,245A
00087A	0150 0206 423C 4202 053C 1028 107C 0328 3810 0110 03C0 1010 0110 0340 1860	RAW 0150,0206,423C,4202,053C,1028,107C,0328,3810,0110,03C0,1010,0110,0340,1860
000889	0406 423C 3C42 4403 407E 4404 5262 034C 4A4A 0434 101E 107C 4E03 324A	RAW 0406,423C,3C42,4403,407E,4404,5262,034C,4A4A,0434,101E,107C,4E03,324A
000897	3C04 4A4A 0330 1262 040E 4A34 344A 0C04 5252 013C 0248 6880 1003 4428	RAW 3C04,4A4A,0330,1262,040E,4A34,344A,0C04,5252,013C,0248,6880,1003,4428
0008A5	2803 2828 4403 1028 0203 0C52 3805 5444 5854 7C04 1212 047C 4A7E 344A	RAW 2803,2828,4403,1028,0203,0C52,3805,5444,5854,7C04,1212,047C,4A7E,344A
0008B3	3C04 4242 0424 427E 3C42 7E03 4A4A 7E03 0A0A 3C04 5242 0434 087E 7E08	RAW 3C04,4242,0424,427E,3C42,7E03,4A4A,7E03,0A0A,3C04,5242,0434,087E,7E08
0008C1	4203 427E 4203 3E42 7E04 1408 0362 407E 0540 047E 0408 057E 047E 2018	RAW 4203,427E,4203,3E42,7E04,1408,0362,407E,0540,047E,0408,057E,047E,2018
0008CF	047E 423C 3C42 7E04 1212 040C 423C BC42 7E04 1212 046C 4A44 304A 0203	RAW 047E,423C,3C42,7E04,1212,040C,423C,BC42,7E04,1212,046C,4A44,304A,0203
0008DD	027E 3E04 4040 053E 1806 1860 0506 403E 403E 053E 2442 2418 0442 A09E	RAW 027E,3E04,4040,053E,1806,1860,0506,403E,403E,053E,2442,2418,0442,A09E
0008EB	7EA0 6204 4A52 0246 427E 0603 6018 4202 037E 1020 0420 8080 8080	RAW 7EA0,6204,4A52,0246,427E,0603,6018,4202,037E,1020,0420,8080,8080
0008F8	0402 0408 5420 7854 7E04 4444 0438 4438 2844 3804 4444 047E 5438 5854	RAW 0402,0408,5420,7854,7E04,4444,0438,4438,2844,3804,4444,047E,5438,5854
000906	7C02 040A A498 7CA4 7E04 0404 0178 027A 3A40 7E04 2810 0144 057E	RAW 7C02,040A,A498,7CA4,7E04,0404,0178,027A,3A40,7E04,2810,0144,057E
000913	047C 0478 0478 047C 7804 3804 4444 0438 24FC 1824 1804 2424 02FC 047C	RAW 047C,0478,0478,047C,7804,3804,4444,0438,24FC,1824,1804,2424,02FC,047C
000921	4804 5454 0320 3E04 0444 403C 3C40 0C05 4030 0C30 3C05 3C40 3C40 4405 1028	RAW 4804,5454,0320,3E04,0444,403C,3C40,0C05,4030,0C30,3C05,3C40,3C40,4405,1028
000930	4428 9C04 A0A0 037C 5464 034C 3608 0141 03FF 3641 0408 1020 1020 0001	RAW 4428,9C04,A0A0,037C,5464,034C,3608,0141,03FF,3641,0408,1020,1020,0001


		OLEDFONT1DATA_H
00093E	2F6A	MOV SYSWORDTEMPA,SYSSTRINGA
00093F	2F7B	MOV SYSWORDTEMPA_H,SYSSTRINGA_H
000940	E0C1	LDI SYSWORDTEMPB,1
000941	E0D0	LDI SYSWORDTEMPB_H,0
000942	D545	RCALL SYSCOMPLESSTHAN16
000943	FE00	SBRS SYSBYTETEMPX,0
000944	9508	RET
000945	E9E6	LDI SYSREADA, LOW(TABLEOLEDFONT1DATA_H<<1)
000946	E1F2	LDI SYSREADA_H, HIGH(TABLEOLEDFONT1DATA_H<<1)
000947	0FEA	ADD SYSREADA, SYSSTRINGA
000948	1FFB	ADC SYSREADA_H, SYSSTRINGA_H
000949	95C8	LPM
00094A	9508	RET
		TABLEOLEDFONT1DATA_H
00094B	0001	RAW 0001


		OLEDFONT1INDEX
00094C	36A1	CPI SYSSTRINGA, 97
00094D	F010	BRLO PC + 3
00094E	2400	CLR SYSBYTETEMPX
00094F	9508	RET
000950	EAEE	LDI SYSREADA, LOW(TABLEOLEDFONT1INDEX<<1)
000951	E1F2	LDI SYSREADA_H, HIGH(TABLEOLEDFONT1INDEX<<1)
000952	0FEA	ADD SYSREADA, SYSSTRINGA
000953	F408	BRCC PC + 2
000954	95F3	INC SYSREADA_H
000955	95C8	LPM
000956	9508	RET
		TABLEOLEDFONT1INDEX
000957	0160 0503 0F09 1915 211F 2724 312D 3733 3D39 4642 4F4B 5854 615D 6B66	RAW 0160,0503,0F09,1915,211F,2724,312D,3733,3D39,4642,4F4B,5854,615D,6B66
000965	706D 7874 807C 8B86 9590 9E9A A7A2 B0AC B9B4 C3BD	RAW 706D,7874,807C,8B86,9590,9E9A,A7A2,B0AC,B9B4,C3BD
00096F	CEC9 D8D3 E2DD EBE6 F7F1 02FD 0A07 110E 1A15 221D 2C27 3631	RAW CEC9,D8D3,E2DD,EBE6,F7F1,02FD,0A07,110E,1A15,221D,2C27,3631
00097B	3E39 4543 4D48 554F 5F5A 6964 716C 7A75 8680 918C 9995	RAW 3E39,4543,4D48,554F,5F5A,6964,716C,7A75,8680,918C,9995
000986	9F9B 00A4	RAW 9F9B,00A4


		OLEDFONT1INDEX_H
000988	36A1	CPI SYSSTRINGA, 97
000989	F010	BRLO PC + 3
00098A	2400	CLR SYSBYTETEMPX
00098B	9508	RET
00098C	E2E6	LDI SYSREADA, LOW(TABLEOLEDFONT1INDEX_H<<1)
00098D	E1F3	LDI SYSREADA_H, HIGH(TABLEOLEDFONT1INDEX_H<<1)
00098E	0FEA	ADD SYSREADA, SYSSTRINGA
00098F	F408	BRCC PC + 2
000990	95F3	INC SYSREADA_H
000991	95C8	LPM
000992	9508	RET
		TABLEOLEDFONT1INDEX_H
000993	0000 0000 0000 0000 0000 0000 0000 0000 0000 0000 0000 0000 0000 0000 0000 0000 0000 0000 0000 0000	RAW 0000,0000,0000,0000,0000,0000,0000,0000,0000,0000,0000,0000,0000,0000,0000,0000,0000,0000,0000,0000
0009A7	0000 0000 0000 0000 0000 0000 0000 0000 0000 0100 0101 0101 0101 0101 0101 0101 0101 0101 0101 0101	RAW 0000,0000,0000,0000,0000,0000,0000,0000,0000,0100,0101,0101,0101,0101,0101,0101,0101,0101,0101,0101
0009BB	0101 0101 0101 0101 0101 0101 0101 0101 0001	RAW 0101,0101,0101,0101,0101,0101,0101,0101,0001


		OLEDFONT2
0009C4	2F6A	MOV SYSWORDTEMPA,SYSSTRINGA
0009C5	2F7B	MOV SYSWORDTEMPA_H,SYSSTRINGA_H
0009C6	E9C1	LDI SYSWORDTEMPB,145
0009C7	E0D7	LDI SYSWORDTEMPB_H,7
0009C8	D4BF	RCALL SYSCOMPLESSTHAN16
0009C9	FE00	SBRS SYSBYTETEMPX,0
0009CA	9508	RET
0009CB	EAE2	LDI SYSREADA, LOW(TABLEOLEDFONT2<<1)
0009CC	E1F3	LDI SYSREADA_H, HIGH(TABLEOLEDFONT2<<1)
0009CD	0FEA	ADD SYSREADA, SYSSTRINGA
0009CE	1FFB	ADC SYSREADA_H, SYSSTRINGA_H
0009CF	95C8	LPM
0009D0	9508	RET
		TABLEOLEDFONT2
0009D1	0093 0000 0000 0000 0000 0000 0000 0000 0000 0000 0000 0000 0000 0000 FE00 001B 0000 0000 0000	RAW 0093,0000,0000,0000,0000,0000,0000,0000,0000,0000,0000,0000,0000,0000,FE00,001B,0000,0000,0000
0009E4	0000 0000 0000 1E00 0000 0000 0000 1E00 0000 0000 0000 0000 2001 A019 7807 2601 A019	RAW 0000,0000,0000,1E00,0000,0000,0000,1E00,0000,0000,0000,0000,2001,A019,7807,2601,A019
0009F5	7807 2601 2001 0001 0000 0000 1C00 2618 4210 FF10 823F 0211 000F 0000 1C00	RAW 7807,2601,2001,0001,0000,0000,1C00,2618,4210,FF10,823F,0211,000F,0000,1C00
000A04	2210 2208 2204 9C03 4000 300E 0811 0411 0211 000E 8007 5C08 6210 A210 3211	RAW 2210,2208,2204,9C03,4000,300E,0811,0411,0211,000E,8007,5C08,6210,A210,3211
000A13	1C13 001C 0018 8016 0001 0000 0000 0000 1E00 0000 0000 0000 0000 0000 0000 0000 0000 E000	RAW 1C13,001C,0018,8016,0001,0000,0000,0000,1E00,0000,0000,0000,0000,0000,0000,0000,0000,E000
000A25	1807 0C18 0430 0220 0240 0040 0000 0200 0240 0440 0C20 1830 E018 0007 0000 0000	RAW 1807,0C18,0430,0220,0240,0040,0000,0200,0240,0440,0C20,1830,E018,0007,0000,0000
000A35	0000 0800 1800 F000 4E00 F000 1800 0800 0000 0000 0000 0002 0002 0002 E002 001F 0002 0002	RAW 0000,0800,1800,F000,4E00,F000,1800,0800,0000,0000,0000,0002,0002,0002,E002,001F,0002,0002
000A47	0002 0002 0000 0000 0000 0000 0098 0078 0000 0000 0000 0000 0000 0000 0000 0001 0001 0001 0001	RAW 0002,0002,0000,0000,0000,0000,0098,0078,0000,0000,0000,0000,0000,0000,0000,0001,0001,0001,0001
000A5A	0001 0001 0000 0000 0000 0000 0000 0018 0018 0000 0000 0000 0000 0000 0000 0040 0030 000C C003	RAW 0001,0001,0000,0000,0000,0000,0000,0018,0018,0000,0000,0000,0000,0000,0000,0040,0030,000C,C003
000A6D	3000 0C00 0200 0000 0000 F000 0C03 020C 0210 0210 0C10 F00C 0003 0000 0000 0400 0410	RAW 3000,0C00,0200,0000,0000,F000,0C03,020C,0210,0210,0C10,F00C,0003,0000,0000,0400,0410
000A7E	0410 FE10 001F 0010 0010 0010 0000 0000 0600 0218 0214 0212 C211 3C10 0010 0000	RAW 0410,FE10,001F,0010,0010,0010,0000,0000,0600,0218,0214,0212,C211,3C10,0010,0000
000A8E	0000 0000 0000 0200 4210 4210 4210 BC10 000F 0000 0000 0000 C003 2002 1802 0402 FE02	RAW 0000,0000,0000,0200,4210,4210,4210,BC10,000F,0000,0000,0000,C003,2002,1802,0402,FE02
000A9F	001F 0002 0002 0000 0000 0000 3E00 2210 2210 4210 8208 0007 0000 0000 0000 F000 4C07	RAW 001F,0002,0002,0000,0000,0000,3E00,2210,2210,4210,8208,0007,0000,0000,0000,F000,4C07
000AB0	2208 2210 2210 4210 8008 0007 0000 0000 0200 0200 0218 C207 3200 0A00 0600 0000 0000	RAW 2208,2210,2210,4210,8008,0007,0000,0000,0200,0200,0218,C207,3200,0A00,0600,0000,0000
000AC1	0000 1C00 A20F 4210 4210 A210 A210 1C09 0006 0000 0000 7800 8400 0210 0211	RAW 0000,1C00,A20F,4210,4210,A210,A210,1C09,0006,0000,0000,7800,8400,0210,0211
000AD0	0211 8411 F80C 0003 0000 0000 0000 0000 6000 6018 0018 0000 0000 0000 0000 0000 0000	RAW 0211,8411,F80C,0003,0000,0000,0000,0000,6000,6018,0018,0000,0000,0000,0000,0000,0000
000AE1	0000 6000 6098 0078 0000 0000 0000 0000 0000 0000 0000 0003 8003 8004 4004 4008 2008	RAW 0000,6000,6098,0078,0000,0000,0000,0000,0000,0000,0000,0003,8003,8004,4004,4008,2008
000AF2	0010 0000 8000 8004 8004 8004 8004 8004 8004 8004 0004 0000 2000 4010 4008	RAW 0010,0000,8000,8004,8004,8004,8004,8004,8004,8004,0004,0000,2000,4010,4008
000B01	8008 8004 0004 0003 0003 0000 0000 0E00 0200 0200 821B 4200 2600 1C00 0000 0000 F000	RAW 8008,8004,0004,0003,0003,0000,0000,0E00,0200,0200,821B,4200,2600,1C00,0000,0000,F000
000B12	1803 040C E218 1213 0A14 8A16 FC1B 0007 0004 0004 0010 800E 7003 1802 3002	RAW 1803,040C,E218,1213,0A14,8A16,FC1B,0007,0004,0004,0010,800E,7003,1802,3002
000B21	C002 0002 0003 000C 0010 F800 881F 8810 8810 8810 4810 3011 000E 0000	RAW C002,0002,0003,000C,0010,F800,881F,8810,8810,8810,4810,3011,000E,0000
000B2F	C000 3003 100C 0808 0810 0810 0810 1810 0010 0000 0000 F800 081F 0810 0810 0810	RAW C000,3003,100C,0808,0810,0810,0810,1810,0010,0000,0000,F800,081F,0810,0810,0810
000B3F	1010 E008 0007 0000 0000 F800 081F 0811 0811 0811 0811 0811 0010 0000 0000 F800	RAW 1010,E008,0007,0000,0000,F800,081F,0811,0811,0811,0811,0811,0010,0000,0000,F800
000B4F	081F 0801 0801 0801 0801 0801 0000 0000 0000 C000 3003 100C 0808 0810 0810 0811 1811	RAW 081F,0801,0801,0801,0801,0801,0000,0000,0000,C000,3003,100C,0808,0810,0810,0811,1811
000B60	001F 0000 F800 001F 0001 0001 0001 0001 F801 001F 0000 0000 0800 0810 0810 F810 081F	RAW 001F,0000,F800,001F,0001,0001,0001,0001,F801,001F,0000,0000,0800,0810,0810,F810,081F
000B71	0810 0810 0010 0000 0000 0000 0000 0810 0810 0810 F810 000F 0000 0000 0000 F800 801F	RAW 0810,0810,0010,0000,0000,0000,0000,0810,0810,0810,F810,000F,0000,0000,0000,F800,801F
000B82	8000 4001 2002 1004 0804 0008 0010 0000 F800 001F 0010 0010 0010 0010 0010 0010	RAW 8000,4001,2002,1004,0804,0008,0010,0000,F800,001F,0010,0010,0010,0010,0010,0010
000B92	0000 F800 381F E000 0001 0007 C006 3801 F800 001F 0000 0000 F800 101F 6000 8000	RAW 0000,F800,381F,E000,0001,0007,C006,3801,F800,001F,0000,0000,F800,101F,6000,8000
000BA2	0001 0006 F808 001F 0000 0000 E000 1007 0808 0810 0810 0810 1010 E008 0007 0000 F800	RAW 0001,0006,F808,001F,0000,0000,E000,1007,0808,0810,0810,0810,1010,E008,0007,0000,F800
000BB3	081F 0801 0801 0801 8801 7000 0000 0000 0000 E000 1007 0808 0810 0810 0810 1030 E048	RAW 081F,0801,0801,0801,8801,7000,0000,0000,0000,E000,1007,0808,0810,0810,0810,1030,E048
000BC4	0047 0000 F800 081F 0801 0801 8803 7004 0008 0010 0000 0000 7000 4818 8810 8810	RAW 0047,0000,F800,081F,0801,0801,8803,7004,0008,0010,0000,0000,7000,4818,8810,8810
000BD4	0810 0811 1809 000E 0000 0800 0800 0800 0800 F800 081F 0800 0800 0800 0000 0000 F800 0007	RAW 0810,0811,1809,000E,0000,0800,0800,0800,0800,F800,081F,0800,0800,0800,0000,0000,F800,0007
000BE6	0018 0010 0010 0010 F808 0007 0000 0800 3000 C000 0001 0006 0018 0018 C007 3000 0800	RAW 0018,0010,0010,0010,F808,0007,0000,0800,3000,C000,0001,0006,0018,0018,C007,3000,0800
000BF7	1800 E000 0003 001C E00F C000 0001 000E E01C 1803 0800 1010 2008 4004 8002	RAW 1800,E000,0003,001C,E00F,C000,0001,000E,E01C,1803,0800,1010,2008,4004,8002
000C06	8001 4001 2002 1004 0808 0810 1000 6000 8000 0000 801F 4000 2000 1000 0800 0000	RAW 8001,4001,2002,1004,0808,0810,1000,6000,8000,0000,801F,4000,2000,1000,0800,0000
000C16	0800 0818 0814 0812 8811 4810 2810 1810 0010 0000 0000 0000 FE00 027F 0240	RAW 0800,0818,0814,0812,8811,4810,2810,1810,0010,0000,0000,0000,FE00,027F,0240
000C25	0240 0240 0040 0000 0000 0200 0C00 3000 C000 0000 0003 000C 0030 0040 0000 0200 0240	RAW 0240,0240,0040,0000,0000,0200,0C00,3000,C000,0000,0003,000C,0030,0040,0000,0200,0240
000C36	0240 0240 FE40 007F 0000 0000 0000 0000 0000 0004 E003 3800 0E00 7000 8000 0003	RAW 0240,0240,FE40,007F,0000,0000,0000,0000,0000,0004,E003,3800,0E00,7000,8000,0003
000C46	0004 0000 0020 0020 0020 0020 0020 0020 0020 0020 0020 0020 0000 0000 0000 0100 0200 0000	RAW 0004,0000,0020,0020,0020,0020,0020,0020,0020,0020,0020,0020,0000,0000,0000,0100,0200,0000
000C58	0000 0000 0000 0000 0000 200C 2012 2011 2011 C009 001F 0010 0000 0000 FE00 401F	RAW 0000,0000,0000,0000,0000,200C,2012,2011,2011,C009,001F,0010,0000,0000,FE00,401F
000C68	2008 2010 2010 6010 8008 0007 0000 0000 8000 4007 2008 2010 2010 2010 2010	RAW 2008,2010,2010,6010,8008,0007,0000,0000,8000,4007,2008,2010,2010,2010,2010
000C77	0010 0000 0000 8000 4007 2018 2010 2010 4010 FE08 001F 0000 0000 8000 4007 2009	RAW 0010,0000,0000,8000,4007,2018,2010,2010,4010,FE08,001F,0000,0000,8000,4007,2009
000C87	2011 2011 2011 C011 0011 0000 0000 2000 2000 FC00 241F 2200 2200 2200 2200	RAW 2011,2011,2011,C011,0011,0000,0000,2000,2000,FC00,241F,2200,2200,2200,2200
000C96	0000 0000 8000 4007 2098 2090 2090 4090 E048 003F 0000 0000 FE00 801F	RAW 0000,0000,8000,4007,2098,2090,2090,4090,E048,003F,0000,0000,FE00,801F
000CA4	4000 2000 2000 2000 C000 001F 0000 0000 2000 2000 2600 E600 001F 0000 0000 0000 0000	RAW 4000,2000,2000,2000,C000,001F,0000,0000,2000,2000,2600,E600,001F,0000,0000,0000,0000
000CB5	0000 0000 2080 2080 2680 E680 007F 0000 0000 0000 0000 FE00 001F 0001 8003	RAW 0000,0000,2080,2080,2680,E680,007F,0000,0000,0000,0000,FE00,001F,0001,8003
000CC4	4004 4004 2008 0010 0000 0000 0000 0200 0200 0200 FE00 001F 0000 0000 0000 E000 401F	RAW 4004,4004,2008,0010,0000,0000,0000,0200,0200,0200,FE00,001F,0000,0000,0000,E000,401F
000CD5	2000 2000 C000 401F 2000 2000 C000 001F 0000 E000 C01F 4000 2000 2000 2000	RAW 2000,2000,C000,401F,2000,2000,C000,001F,0000,E000,C01F,4000,2000,2000,2000
000CE4	C000 001F 0000 0000 8000 4007 2008 2010 2010 4010 8008 0007 0000 0000 E000	RAW C000,001F,0000,0000,8000,4007,2008,2010,2010,4010,8008,0007,0000,0000,E000
000CF3	40FF 2008 2010 2010 6010 8008 0007 0000 0000 8000 4007 2018 2010 2010 4010	RAW 40FF,2008,2010,2010,6010,8008,0007,0000,0000,8000,4007,2018,2010,2010,4010
000D02	E008 00FF 0000 0000 0000 E000 801F 4000 2000 2000 E000 0000 0000 0000 C000 2018	RAW E008,00FF,0000,0000,0000,E000,801F,4000,2000,2000,E000,0000,0000,0000,C000,2018
000D12	2011 2011 2012 2012 000C 0000 0000 0000 2000 2000 F800 200F 2010 2010 2010	RAW 2011,2011,2012,2012,000C,0000,0000,0000,2000,2000,F800,200F,2010,2010,2010
000D21	0010 0000 0000 E000 000F 0010 0010 0010 E008 001F 0000 0000 2000 C000 0001 0006 0018	RAW 0010,0000,0000,E000,000F,0010,0010,0010,E008,001F,0000,0000,2000,C000,0001,0006,0018
000D32	0010 000C C003 2000 0000 6000 8000 0007 0018 C00E 8001 0001 000E 8018 6007	RAW 0010,000C,C003,2000,0000,6000,8000,0007,0018,C00E,8001,0001,000E,8018,6007
000D41	0000 2000 4010 8008 0004 0003 8003 4004 2008 0010 2000 C080 0080 0083 0046	RAW 0000,2000,4010,8008,0004,0003,8003,4004,2008,0010,2000,C080,0080,0083,0046
000D50	0038 0018 0006 C001 2000 0000 2000 2010 2018 2014 2012 A011 6010 2010 0010	RAW 0038,0018,0006,C001,2000,0000,2000,2010,2018,2014,2012,A011,6010,2010,0010
000D5F	0000 0000 0000 0001 FC01 023E 0240 0240 0040 0000 0000 0000 0000 0000 FE00 007F 0000 0000	RAW 0000,0000,0000,0001,FC01,023E,0240,0240,0040,0000,0000,0000,0000,0000,FE00,007F,0000,0000
000D71	0000 0000 0000 0000 0200 0240 0240 FC40 003E 0001 0001 0000 0000 8003 8000 8000 0000	RAW 0000,0000,0000,0000,0200,0240,0240,FC40,003E,0001,0001,0000,0000,8003,8000,8000,0000
000D82	0001 0001 0002 0002 8002 0001 8000 C01F 2010 1010 2010 C010 8010 001F 0000	RAW 0001,0001,0002,0002,8002,0001,8000,C01F,2010,1010,2010,C010,8010,001F,0000
000D91	C000 3003 100C 0808 0810 0810 0890 18B0 00D0	RAW C000,3003,100C,0808,0810,0810,0890,18B0,00D0


		OLEDFONT2_H
000D9A	2F6A	MOV SYSWORDTEMPA,SYSSTRINGA
000D9B	2F7B	MOV SYSWORDTEMPA_H,SYSSTRINGA_H
000D9C	E0C1	LDI SYSWORDTEMPB,1
000D9D	E0D0	LDI SYSWORDTEMPB_H,0
000D9E	D0E9	RCALL SYSCOMPLESSTHAN16
000D9F	FE00	SBRS SYSBYTETEMPX,0
000DA0	9508	RET
000DA1	E4EE	LDI SYSREADA, LOW(TABLEOLEDFONT2_H<<1)
000DA2	E1FB	LDI SYSREADA_H, HIGH(TABLEOLEDFONT2_H<<1)
000DA3	0FEA	ADD SYSREADA, SYSSTRINGA
000DA4	1FFB	ADC SYSREADA_H, SYSSTRINGA_H
000DA5	95C8	LPM
000DA6	9508	RET
		TABLEOLEDFONT2_H
000DA7	0007	RAW 0007


		PSET_ILI9341
000DA8	9150 0154	LDS SYSVALUECOPY,GLCDX
000DAA	9350 018B	STS _X1,SYSVALUECOPY
000DAC	9150 0155	LDS SYSVALUECOPY,GLCDX_H
000DAE	9350 018C	STS _X1_H,SYSVALUECOPY
000DB0	9150 0156	LDS SYSVALUECOPY,GLCDY
000DB2	9350 018F	STS _Y1,SYSVALUECOPY
000DB4	9150 0157	LDS SYSVALUECOPY,GLCDY_H
000DB6	9350 0190	STS _Y1_H,SYSVALUECOPY
000DB8	9150 0154	LDS SYSVALUECOPY,GLCDX
000DBA	9350 018D	STS _X2,SYSVALUECOPY
000DBC	9150 0155	LDS SYSVALUECOPY,GLCDX_H
000DBE	9350 018E	STS _X2_H,SYSVALUECOPY
000DC0	9150 0156	LDS SYSVALUECOPY,GLCDY
000DC2	9350 0191	STS _Y2,SYSVALUECOPY
000DC4	9150 0157	LDS SYSVALUECOPY,GLCDY_H
000DC6	9350 0192	STS _Y2_H,SYSVALUECOPY
000DC8	D07F	RCALL SETADDRESSWINDOW_ILI9341
000DC9	9150 0142	LDS SYSVALUECOPY,GLCDCOLOUR
000DCB	9350 015B	STS ILI9341SENDWORD,SYSVALUECOPY
000DCD	9150 0143	LDS SYSVALUECOPY,GLCDCOLOUR_H
000DCF	9350 015C	STS ILI9341SENDWORD_H,SYSVALUECOPY
000DD1	C03C	RJMP SENDWORD_ILI9341


		SENDCOMMAND_ILI9341
000DD2	9843	CBI PORTC,3
000DD3	9842	CBI PORTC,2
000DD4	9A40	SBI PORTC,0
000DD5	9A41	SBI PORTC,1
000DD6	E003	LDI SYSTEMP3,3
000DD7	B06B	IN SYSTEMP1,PORTD
000DD8	2260	AND SYSTEMP1,SYSTEMP3
000DD9	2C46	MOV SYSTEMP4,SYSTEMP1
000DDA	EF0C	LDI SYSTEMP3,252
000DDB	9080 015A	LDS SYSTEMP2,ILI9341SENDBYTE
000DDD	2280	AND SYSTEMP2,SYSTEMP3
000DDE	2C68	MOV SYSTEMP1,SYSTEMP2
000DDF	2864	OR SYSTEMP1,SYSTEMP4
000DE0	B86B	OUT PORTD,SYSTEMP1
000DE1	EF0C	LDI SYSTEMP3,252
000DE2	B065	IN SYSTEMP1,PORTB
000DE3	2260	AND SYSTEMP1,SYSTEMP3
000DE4	2C46	MOV SYSTEMP4,SYSTEMP1
000DE5	E003	LDI SYSTEMP3,3
000DE6	9080 015A	LDS SYSTEMP2,ILI9341SENDBYTE
000DE8	2280	AND SYSTEMP2,SYSTEMP3
000DE9	2C68	MOV SYSTEMP1,SYSTEMP2
000DEA	2864	OR SYSTEMP1,SYSTEMP4
000DEB	B865	OUT PORTB,SYSTEMP1
000DEC	9841	CBI PORTC,1
000DED	9A41	SBI PORTC,1
000DEE	9A43	SBI PORTC,3
000DEF	9508	RET


		SENDDATA_ILI9341
000DF0	9843	CBI PORTC,3
000DF1	9A42	SBI PORTC,2
000DF2	9A40	SBI PORTC,0
000DF3	9A41	SBI PORTC,1
000DF4	E003	LDI SYSTEMP3,3
000DF5	B06B	IN SYSTEMP1,PORTD
000DF6	2260	AND SYSTEMP1,SYSTEMP3
000DF7	2C46	MOV SYSTEMP4,SYSTEMP1
000DF8	EF0C	LDI SYSTEMP3,252
000DF9	9080 015A	LDS SYSTEMP2,ILI9341SENDBYTE
000DFB	2280	AND SYSTEMP2,SYSTEMP3
000DFC	2C68	MOV SYSTEMP1,SYSTEMP2
000DFD	2864	OR SYSTEMP1,SYSTEMP4
000DFE	B86B	OUT PORTD,SYSTEMP1
000DFF	EF0C	LDI SYSTEMP3,252
000E00	B065	IN SYSTEMP1,PORTB
000E01	2260	AND SYSTEMP1,SYSTEMP3
000E02	2C46	MOV SYSTEMP4,SYSTEMP1
000E03	E003	LDI SYSTEMP3,3
000E04	9080 015A	LDS SYSTEMP2,ILI9341SENDBYTE
000E06	2280	AND SYSTEMP2,SYSTEMP3
000E07	2C68	MOV SYSTEMP1,SYSTEMP2
000E08	2864	OR SYSTEMP1,SYSTEMP4
000E09	B865	OUT PORTB,SYSTEMP1
000E0A	9841	CBI PORTC,1
000E0B	9A41	SBI PORTC,1
000E0C	9A43	SBI PORTC,3
000E0D	9508	RET


		SENDWORD_ILI9341
000E0E	9843	CBI PORTC,3
000E0F	9A42	SBI PORTC,2
000E10	9A40	SBI PORTC,0
000E11	9A41	SBI PORTC,1
000E12	E003	LDI SYSTEMP3,3
000E13	B08B	IN SYSTEMP2,PORTD
000E14	2280	AND SYSTEMP2,SYSTEMP3
000E15	2C68	MOV SYSTEMP1,SYSTEMP2
000E16	EF0C	LDI SYSTEMP3,252
000E17	9040 015C	LDS SYSTEMP4,ILI9341SENDWORD_H
000E19	2240	AND SYSTEMP4,SYSTEMP3
000E1A	2C84	MOV SYSTEMP2,SYSTEMP4
000E1B	2886	OR SYSTEMP2,SYSTEMP1
000E1C	B88B	OUT PORTD,SYSTEMP2
000E1D	EF0C	LDI SYSTEMP3,252
000E1E	B065	IN SYSTEMP1,PORTB
000E1F	2260	AND SYSTEMP1,SYSTEMP3
000E20	2C46	MOV SYSTEMP4,SYSTEMP1
000E21	E003	LDI SYSTEMP3,3
000E22	9080 015C	LDS SYSTEMP2,ILI9341SENDWORD_H
000E24	2280	AND SYSTEMP2,SYSTEMP3
000E25	2C68	MOV SYSTEMP1,SYSTEMP2
000E26	2864	OR SYSTEMP1,SYSTEMP4
000E27	B865	OUT PORTB,SYSTEMP1
000E28	9841	CBI PORTC,1
000E29	9A41	SBI PORTC,1
000E2A	E003	LDI SYSTEMP3,3
000E2B	B06B	IN SYSTEMP1,PORTD
000E2C	2260	AND SYSTEMP1,SYSTEMP3
000E2D	2C46	MOV SYSTEMP4,SYSTEMP1
000E2E	EF0C	LDI SYSTEMP3,252
000E2F	9080 015B	LDS SYSTEMP2,ILI9341SENDWORD
000E31	2280	AND SYSTEMP2,SYSTEMP3
000E32	2C68	MOV SYSTEMP1,SYSTEMP2
000E33	E050	LDI SYSVALUECOPY,0
000E34	2E75	MOV SYSTEMP1_H,SYSVALUECOPY
000E35	2864	OR SYSTEMP1,SYSTEMP4
000E36	B86B	OUT PORTD,SYSTEMP1
000E37	EF0C	LDI SYSTEMP3,252
000E38	B065	IN SYSTEMP1,PORTB
000E39	2260	AND SYSTEMP1,SYSTEMP3
000E3A	2C46	MOV SYSTEMP4,SYSTEMP1
000E3B	E003	LDI SYSTEMP3,3
000E3C	9080 015B	LDS SYSTEMP2,ILI9341SENDWORD
000E3E	2280	AND SYSTEMP2,SYSTEMP3
000E3F	2C68	MOV SYSTEMP1,SYSTEMP2
000E40	E050	LDI SYSVALUECOPY,0
000E41	2E75	MOV SYSTEMP1_H,SYSVALUECOPY
000E42	2864	OR SYSTEMP1,SYSTEMP4
000E43	B865	OUT PORTB,SYSTEMP1
000E44	9841	CBI PORTC,1
000E45	9A41	SBI PORTC,1
000E46	9A43	SBI PORTC,3
000E47	9508	RET


		SETADDRESSWINDOW_ILI9341
000E48	E25A	LDI SYSVALUECOPY,42
000E49	9350 015A	STS ILI9341SENDBYTE,SYSVALUECOPY
000E4B	DF86	RCALL SENDCOMMAND_ILI9341
000E4C	9150 018C	LDS SYSVALUECOPY,_X1_H
000E4E	9350 015A	STS ILI9341SENDBYTE,SYSVALUECOPY
000E50	DF9F	RCALL SENDDATA_ILI9341
000E51	9150 018B	LDS SYSVALUECOPY,_X1
000E53	9350 015A	STS ILI9341SENDBYTE,SYSVALUECOPY
000E55	DF9A	RCALL SENDDATA_ILI9341
000E56	9150 018E	LDS SYSVALUECOPY,_X2_H
000E58	9350 015A	STS ILI9341SENDBYTE,SYSVALUECOPY
000E5A	DF95	RCALL SENDDATA_ILI9341
000E5B	9150 018D	LDS SYSVALUECOPY,_X2
000E5D	9350 015A	STS ILI9341SENDBYTE,SYSVALUECOPY
000E5F	DF90	RCALL SENDDATA_ILI9341
000E60	E25B	LDI SYSVALUECOPY,43
000E61	9350 015A	STS ILI9341SENDBYTE,SYSVALUECOPY
000E63	DF6E	RCALL SENDCOMMAND_ILI9341
000E64	9150 0190	LDS SYSVALUECOPY,_Y1_H
000E66	9350 015A	STS ILI9341SENDBYTE,SYSVALUECOPY
000E68	DF87	RCALL SENDDATA_ILI9341
000E69	9150 018F	LDS SYSVALUECOPY,_Y1
000E6B	9350 015A	STS ILI9341SENDBYTE,SYSVALUECOPY
000E6D	DF82	RCALL SENDDATA_ILI9341
000E6E	9150 0192	LDS SYSVALUECOPY,_Y2_H
000E70	9350 015A	STS ILI9341SENDBYTE,SYSVALUECOPY
000E72	DF7D	RCALL SENDDATA_ILI9341
000E73	9150 0191	LDS SYSVALUECOPY,_Y2
000E75	9350 015A	STS ILI9341SENDBYTE,SYSVALUECOPY
000E77	DF78	RCALL SENDDATA_ILI9341
000E78	E25C	LDI SYSVALUECOPY,44
000E79	9350 015A	STS ILI9341SENDBYTE,SYSVALUECOPY
000E7B	CF56	RJMP SENDCOMMAND_ILI9341


		SYSCOMPEQUAL
000E7C	2400	CLR SYSBYTETEMPX
000E7D	136C	CPSE SYSBYTETEMPA, SYSBYTETEMPB
000E7E	9508	RET
000E7F	9400	COM SYSBYTETEMPX
000E80	9508	RET


		SYSCOMPEQUAL16
000E81	2400	CLR SYSBYTETEMPX
000E82	176C	CP SYSWORDTEMPA, SYSWORDTEMPB
000E83	F419	BRNE SCE16FALSE
000E84	177D	CP SYSWORDTEMPA_H, SYSWORDTEMPB_H
000E85	F409	BRNE SCE16FALSE
000E86	9400	COM SYSBYTETEMPX
		SCE16FALSE
000E87	9508	RET


		SYSCOMPLESSTHAN16
000E88	2400	CLR SYSBYTETEMPX
000E89	17D7	CP SYSWORDTEMPB_H,SYSWORDTEMPA_H
000E8A	F030	BRLO SCLT16FALSE
000E8B	177D	CP SYSWORDTEMPA_H,SYSWORDTEMPB_H
000E8C	F018	BRLO SCLT16TRUE
000E8D	176C	CP SYSWORDTEMPA,SYSWORDTEMPB
000E8E	F008	BRLO SCLT16TRUE
000E8F	9508	RET
		SCLT16TRUE
000E90	9400	COM SYSBYTETEMPX
		SCLT16FALSE
000E91	9508	RET


		SYSMULTSUB16
000E92	9F6C	MUL SYSWORDTEMPA, SYSWORDTEMPB
000E93	2C20	MOV SYSDIVMULTX,SYSWORDTEMPX
000E94	2C31	MOV SYSDIVMULTX_H,SYSWORDTEMPX_H
000E95	9F6D	MUL SYSWORDTEMPA, SYSWORDTEMPB_H
000E96	0C30	ADD SYSDIVMULTX_H, SYSWORDTEMPX
000E97	9F7C	MUL SYSWORDTEMPA_H, SYSWORDTEMPB
000E98	0C30	ADD SYSDIVMULTX_H, SYSWORDTEMPX
000E99	2C02	MOV SYSWORDTEMPX,SYSDIVMULTX
000E9A	2C13	MOV SYSWORDTEMPX_H,SYSDIVMULTX_H
000E9B	9508	RET


		SYSREADSTRING
000E9C	95C8	LPM
000E9D	2D60	MOV SYSCALCTEMPA, SYSCALCTEMPX
000E9E	95E3	INC SYSREADA
000E9F	F409	BRNE PC + 2
000EA0	95F3	INC SYSREADA_H
000EA1	9369	ST Y+, SYSCALCTEMPA
000EA2	C006	RJMP SYSSTRINGREADCHECK
		SYSREADSTRINGPART
000EA3	95C8	LPM
000EA4	2D60	MOV SYSCALCTEMPA, SYSCALCTEMPX
000EA5	95E3	INC SYSREADA
000EA6	F409	BRNE PC + 2
000EA7	95F3	INC SYSREADA_H
000EA8	0F96	ADD SYSSTRINGLENGTH, SYSCALCTEMPA
		SYSSTRINGREADCHECK
000EA9	3060	CPI SYSCALCTEMPA, 0
000EAA	F409	BRNE SYSSTRINGREAD
000EAB	9508	RET
		SYSSTRINGREAD
000EAC	95C8	LPM
000EAD	95E3	INC SYSREADA
000EAE	F409	BRNE PC + 2
000EAF	95F3	INC SYSREADA_H
000EB0	9209	ST Y+, SYSCALCTEMPX
000EB1	956A	DEC SYSCALCTEMPA
000EB2	F7C9	BRNE SYSSTRINGREAD
000EB3	9508	RET


		SYSSTRINGTABLES

		STRINGTABLE2
000EB4	4907 494C 3339 3134	RAW 4907,494C,3339,3134


		STRINGTABLE3
000EB8	551C 4F4E 4120 5256 4720 6172 6870 6369 6C61 4C20 4443 5320 6968 6C65 0064	RAW 551C,4F4E,4120,5256,4720,6172,6870,6369,6C61,4C20,4443,5320,6968,6C65,0064


		STRINGTABLE4
000EC7	4732 6572 7461 4320 776F 4220 5341 4349 6120 6320 6D6F 6970 656C 2072 6F66 2072 694D 7263 636F 6968 2070 5641 2052 2026 4950 0043	RAW 4732,6572,7461,4320,776F,4220,5341,4349,6120,6320,6D6F,6970,656C,2072,6F66,2072,694D,7263,636F,6968,2070,5641,2052,2026,4950,0043


		STRINGTABLE5
000EE1	410A 7270 6C69 3220 3130 0039	RAW 410A,7270,6C69,3220,3130,0039



		TABLEIMAGE1
000EE7	2F6A	MOV SYSWORDTEMPA,SYSSTRINGA
000EE8	2F7B	MOV SYSWORDTEMPA_H,SYSSTRINGA_H
000EE9	E6C3	LDI SYSWORDTEMPB,99
000EEA	E2D2	LDI SYSWORDTEMPB_H,34
000EEB	DF9C	RCALL SYSCOMPLESSTHAN16
000EEC	FE00	SBRS SYSBYTETEMPX,0
000EED	9508	RET
000EEE	EEE8	LDI SYSREADA, LOW(TABLETABLEIMAGE1<<1)
000EEF	E1FD	LDI SYSREADA_H, HIGH(TABLETABLEIMAGE1<<1)
000EF0	0FEA	ADD SYSREADA, SYSSTRINGA
000EF1	1FFB	ADC SYSREADA_H, SYSSTRINGA_H
000EF2	95C8	LPM
000EF3	9508	RET
		TABLETABLEIMAGE1
000EF4	B062 FF32 FFFF FFFF FFFF FFFF FFFF FFFF FFFF FFFF	RAW B062,FF32,FFFF,FFFF,FFFF,FFFF,FFFF,FFFF,FFFF,FFFF
000EFE	FFFF FFFF FFFF FFFF FFFF FFFF FFFF FFFF FFFF FFFF	RAW FFFF,FFFF,FFFF,FFFF,FFFF,FFFF,FFFF,FFFF,FFFF,FFFF
000F08	FFFF FFFF FFFF FFFF FFFF FFFF FFFF FFFF FFFF FFFF	RAW FFFF,FFFF,FFFF,FFFF,FFFF,FFFF,FFFF,FFFF,FFFF,FFFF
000F12	FFFF FFFF FFFF FFDE FFFF FFFF FFFF FFFF DFDF BEBF	RAW FFFF,FFFF,FFFF,FFDE,FFFF,FFFF,FFFF,FFFF,DFDF,BEBF
000F1C	9E9E 3D7D 1C1C FC1C 9ADB 3979 96F7 1455 92D3 B092 4E11	RAW 9E9E,3D7D,1C1C,FC1C,9ADB,3979,96F7,1455,92D3,B092,4E11
000F27	4E8F 2D8B 09AB 6A6A 66C8 6667 E425 E4E4 E4C4 4725 8767	RAW 4E8F,2D8B,09AB,6A6A,66C8,6667,E425,E4E4,E4C4,4725,8767
000F32	6BC8 4A09 ACED 4F4E 11D0 D452 7635 39D7 FC9B 5D3D 7E5D DF9E	RAW 6BC8,4A09,ACED,4F4E,11D0,D452,7635,39D7,FC9B,5D3D,7E5D,DF9E
000F3E	DFDF DFDF FFDF FFFF FFFF FFFF FFFF FFFF FFFF FFFF	RAW DFDF,DFDF,FFDF,FFFF,FFFF,FFFF,FFFF,FFFF,FFFF,FFFF
000F48	DFFF FFFF FFFF FFFF FFFF FFFF FFFF FFFF FFFF FFFF	RAW DFFF,FFFF,FFFF,FFFF,FFFF,FFFF,FFFF,FFFF,FFFF,FFFF
000F52	FFFF FFFF FFFF FFFF FFFF FFFF FFFF FFFF FFFF FFFF	RAW FFFF,FFFF,FFFF,FFFF,FFFF,FFFF,FFFF,FFFF,FFFF,FFFF
000F5C	FFFF FFFF FFFF FFFF FFFF FFFF FFFF FFFF FFFF FFFF	RAW FFFF,FFFF,FFFF,FFFF,FFFF,FFFF,FFFF,FFFF,FFFF,FFFF
000F66	FFFF FFFF DEFF FFFF FFFF FFFF FFFF FFFF FFFF FFFF	RAW FFFF,FFFF,DEFF,FFFF,FFFF,FFFF,FFFF,FFFF,FFFF,FFFF
000F70	FFFF BEFF BB7D B739 9214 4D30 49CB 66C7 4545 2525 E404	RAW FFFF,BEFF,BB7D,B739,9214,4D30,49CB,66C7,4545,2525,E404
000F7B	E4E4 E4E4 A3C4 A383 8383 63A3 6283 4262 2242 2222 0101 2101	RAW E4E4,E4E4,A3C4,A383,8383,63A3,6283,4262,2242,2222,0101,2101
000F87	0101 2201 2222 4222 6322 2263 6342 8363 8383 A4A3 C483 8725 EC29	RAW 0101,2201,2222,4222,6322,2263,6342,8363,8383,A4A3,C483,8725,EC29
000F94	72AF B7F4 FC59 7E5D 9E7D BFBE DFDF DFDF FFFF FFFF	RAW 72AF,B7F4,FC59,7E5D,9E7D,BFBE,DFDF,DFDF,FFFF,FFFF
000F9E	FFDE FFFF FFFF FFFF FFFF FFFF FFFF FFFF FFFF FFFF	RAW FFDE,FFFF,FFFF,FFFF,FFFF,FFFF,FFFF,FFFF,FFFF,FFFF
000FA8	FFFF FFFF FFFF FFFF FFFF FFFF FFFF FFFF FFFF FFFF	RAW FFFF,FFFF,FFFF,FFFF,FFFF,FFFF,FFFF,FFFF,FFFF,FFFF
000FB2	FFFF FFFF FFFF FFFF FFFF FFFF FFFF FFFF FFFF FFFF	RAW FFFF,FFFF,FFFF,FFFF,FFFF,FFFF,FFFF,FFFF,FFFF,FFFF
000FBC	FFFF FFFF FFDE FFFF FFFF FFFF FFFF FFFF FFFF FFFF	RAW FFFF,FFFF,FFDE,FFFF,FFFF,FFFF,FFFF,FFFF,FFFF,FFFF
000FC6	FFFF FFFF FFFF BEFF 1C9E BAFB 3959 D7D7 7696 1455 92D3	RAW FFFF,FFFF,FFFF,BEFF,1C9E,BAFB,3959,D7D7,7696,1455,92D3
000FD1	F051 4EAF 8BEC A729 0466 E3E3 C3C3 62C3 6362 2242 0222 0202	RAW F051,4EAF,8BEC,A729,0466,E3E3,C3C3,62C3,6362,2242,0222,0202
000FDD	0202 0101 0202 0222 0101 0222 0102 2202 2222 2222 0122 4322 4242 4243 4243 6242	RAW 0202,0101,0202,0222,0101,0222,0102,2202,2222,2222,0122,4322,4242,4243,4243,6242
000FED	A383 C483 6A86 D3AE DBB6 7E3C DE9E FFDE FFFF FFFF	RAW A383,C483,6A86,D3AE,DBB6,7E3C,DE9E,FFDE,FFFF,FFFF
000FF7	DFDF FFFF FFFF FFFF FFFF FFFF FFFF FFFF FFFF FFFF	RAW DFDF,FFFF,FFFF,FFFF,FFFF,FFFF,FFFF,FFFF,FFFF,FFFF
001001	FFFF FFFF FFFF FFFF FFFF FFFF FFFF FFFF FFFF FFFF	RAW FFFF,FFFF,FFFF,FFFF,FFFF,FFFF,FFFF,FFFF,FFFF,FFFF
00100B	FFFF FFFF FFFF FFFF FFFF FFFF FFFF FFFF FFFF FFFF	RAW FFFF,FFFF,FFFF,FFFF,FFFF,FFFF,FFFF,FFFF,FFFF,FFFF
001015	FFFF FFFF DEFF FFFF FFFF FFFF FFFF FFFF FFFF FFFF	RAW FFFF,FFFF,DEFF,FFFF,FFFF,FFFF,FFFF,FFFF,FFFF,FFFF
00101F	FFFF FFFF FFFF DFFF DFDF BFBE BFBE BEBE BEBE 9E9E	RAW FFFF,FFFF,FFFF,DFFF,DFDF,BFBE,BFBE,BEBE,BEBE,9E9E
001029	7E7E 5E7E 5D5D 3D3D 9A1C D779 1496 1072 CC8E A84A 8405	RAW 7E7E,5E7E,5D5D,3D3D,9A1C,D779,1496,1072,CC8E,A84A,8405
001034	8383 6363 6342 4263 4222 2243 0122 0101 2201 0101 0102 2201 0102 0201 0101 0201	RAW 8383,6363,6342,4263,4222,2243,0122,0101,2201,0101,0102,2201,0102,0201,0101,0201
001044	0102 0101 0101 4201 8262 C4A3 4EE8 59D4 9D5D BE9D DFDF DFFF	RAW 0102,0101,0101,4201,8262,C4A3,4EE8,59D4,9D5D,BE9D,DFDF,DFFF
001050	FFDF FFFF FFFF FFFF FFFF FFFF FFFF FFFF FFFF FFFF	RAW FFDF,FFFF,FFFF,FFFF,FFFF,FFFF,FFFF,FFFF,FFFF,FFFF
00105A	FFFF FFFF FFFF FFFF FFFF FFFF FFFF FFFF FFFF FFFF	RAW FFFF,FFFF,FFFF,FFFF,FFFF,FFFF,FFFF,FFFF,FFFF,FFFF
001064	FFFF FFFF FFFF FFFF FFFF FFFF FFFF FFFF FFFF FFFF	RAW FFFF,FFFF,FFFF,FFFF,FFFF,FFFF,FFFF,FFFF,FFFF,FFFF
00106E	FFFF FFFF FFDE FFFF FFFF FFFF FFFF FFFF FFFF FFFF	RAW FFFF,FFFF,FFDE,FFFF,FFFF,FFFF,FFFF,FFFF,FFFF,FFFF
001078	FFFF FFFF FFFF DFFF DFDF DFDF DFDF DFDF DFDF DFDF	RAW FFFF,FFFF,FFFF,DFFF,DFDF,DFDF,DFDF,DFDF,DFDF,DFDF
001082	DFDF DEDE DFDE BFBE BF9E 9EBE 9E9E 9E7E 7E7E DC3D	RAW DFDF,DEDE,DFDE,BFBE,BF9E,9EBE,9E9E,9E7E,7E7E,DC3D
00108C	D87A 9235 2DF0 6649 83C4 6383 2222 0142 0101 0101 0102 0201 0102 0222	RAW D87A,9235,2DF0,6649,83C4,6383,2222,0142,0101,0101,0102,0201,0102,0222
00109A	0202 0102 0102 0202 0202 0202 2202 4242 2222 6343 CBE4 9AD3 BE7D FFBF	RAW 0202,0102,0102,0202,0202,0202,2202,4242,2222,6343,CBE4,9AD3,BE7D,FFBF
0010A8	FFFF FFFF FFFF FFFF FFFF FFFF FFFF FFFF FFFF FFFF	RAW FFFF,FFFF,FFFF,FFFF,FFFF,FFFF,FFFF,FFFF,FFFF,FFFF
0010B2	FFFF FFFF FFFF FFFF FFFF FFFF FFFF FFFF FFFF FFFF	RAW FFFF,FFFF,FFFF,FFFF,FFFF,FFFF,FFFF,FFFF,FFFF,FFFF
0010BC	FFFF FFFF FFFF FFFF FFFF FFFF FFFF FFFF FFFF FFFF	RAW FFFF,FFFF,FFFF,FFFF,FFFF,FFFF,FFFF,FFFF,FFFF,FFFF
0010C6	FFFF FFDE FFFF FFFF FFFF FFFF FFFF FFFF FFFF FFFF	RAW FFFF,FFDE,FFFF,FFFF,FFFF,FFFF,FFFF,FFFF,FFFF,FFFF
0010D0	FFFF FFFF FFFF FFFF FFFF FFFF FFFF FFFF FFFF FFFF	RAW FFFF,FFFF,FFFF,FFFF,FFFF,FFFF,FFFF,FFFF,FFFF,FFFF
0010DA	FFFF FFFF FFFF FFFF FFDF FFFF FFFF FFFF FFFF FFFF	RAW FFFF,FFFF,FFFF,FFFF,FFDF,FFFF,FFFF,FFFF,FFFF,FFFF
0010E4	DFDF BEBF 7E9E 3D7D D89B 1135 A7CC 62C4 8383 6362 4242	RAW DFDF,BEBF,7E9E,3D7D,D89B,1135,A7CC,62C4,8383,6362,4242
0010EF	2243 0202 0202 0202 0202 0202 0201 0202 0202 0202 0202 0202 0202 4222 E382 F428 9E3C	RAW 2243,0202,0202,0202,0202,0202,0201,0202,0202,0202,0202,0202,0202,4222,E382,F428,9E3C
001100	DE9E FFFF FFFF FFFF FFFF FFFE FFFF FFFF FFFF FFFF	RAW DE9E,FFFF,FFFF,FFFF,FFFF,FFFE,FFFF,FFFF,FFFF,FFFF
00110A	FFFF FFFF FFFF FFFF FFFF FFFF FFFF FFFF FFFF FFFF	RAW FFFF,FFFF,FFFF,FFFF,FFFF,FFFF,FFFF,FFFF,FFFF,FFFF
001114	FFFF FFFF FFFF FFFF FFFF FFFF FFFF FFFF FFFF FFFF	RAW FFFF,FFFF,FFFF,FFFF,FFFF,FFFF,FFFF,FFFF,FFFF,FFFF
00111E	FFFF FFFF FFFF FFFF FFFF FFFF FFFF FFDE FFFF FFFF	RAW FFFF,FFFF,FFFF,FFFF,FFFF,FFFF,FFFF,FFDE,FFFF,FFFF
001128	FFFF FFFF FFFF FFFF FFFF FFFF FFFF FFFF FFFF FFFF	RAW FFFF,FFFF,FFFF,FFFF,FFFF,FFFF,FFFF,FFFF,FFFF,FFFF
001132	FFFF FFFF FFFF FFFF FFFF FFFF FFFF FFFF FFFF FFFF	RAW FFFF,FFFF,FFFF,FFFF,FFFF,FFFF,FFFF,FFFF,FFFF,FFFF
00113C	FFFF DFFF DFDF DFDF BEBE 9E9E 7E7E 5AFC 7397 096F A325	RAW FFFF,DFFF,DFDF,DFDF,BEBE,9E9E,7E7E,5AFC,7397,096F,A325
001147	4263 2242 0201 0101 0101 0202 0102 0202 0202 0202 0202 0202 0202 0202 2222 6242 2DC4	RAW 4263,2242,0201,0101,0101,0202,0102,0202,0202,0202,0202,0202,0202,0202,2222,6242,2DC4
001158	5D39 DFBE FFFF FFFF FFFF FFFE FFFF FFFF FFFF FFFF	RAW 5D39,DFBE,FFFF,FFFF,FFFF,FFFE,FFFF,FFFF,FFFF,FFFF
001162	FFFF FFFF FFFF FFFF FFFF FFFF FFFF FFFF FFFF FFFF	RAW FFFF,FFFF,FFFF,FFFF,FFFF,FFFF,FFFF,FFFF,FFFF,FFFF
00116C	FFFF FFFF FFFF FFFF FFFF FFFF FFFF FFFF FFFF FFFF	RAW FFFF,FFFF,FFFF,FFFF,FFFF,FFFF,FFFF,FFFF,FFFF,FFFF
001176	FFFF FFFF FFFF FFFF FFFF FFFF FFFF FFDE FFFF FFFF	RAW FFFF,FFFF,FFFF,FFFF,FFFF,FFFF,FFFF,FFDE,FFFF,FFFF
001180	FFFF FFFF FFFF FFFF FFFF FFFF FFFF FFFF FFFF FFFF	RAW FFFF,FFFF,FFFF,FFFF,FFFF,FFFF,FFFF,FFFF,FFFF,FFFF
00118A	FFFF FFFF FFFF FFFF FFFF FFFF FFFF FFFF FFFF FFFF	RAW FFFF,FFFF,FFFF,FFFF,FFFF,FFFF,FFFF,FFFF,FFFF,FFFF
001194	FFFF FFFF FFFF FFFF FFFF FFFF FFFF DFDF BFBF 5D9E	RAW FFFF,FFFF,FFFF,FFFF,FFFF,FFFF,FFFF,DFDF,BFBF,5D9E
00119E	18FB AFF4 E429 6283 4262 4242 0222 0202 0101 0202 0202 0202 0202 0202 0202 0202	RAW 18FB,AFF4,E429,6283,4262,4242,0222,0202,0101,0202,0202,0202,0202,0202,0202,0202
0011AE	2201 4222 6A83 7EF8 DFBF FFFF FFFF FFFE FFFF FFFF FFFF	RAW 2201,4222,6A83,7EF8,DFBF,FFFF,FFFF,FFFE,FFFF,FFFF,FFFF
0011B9	FFFF FFFF FFFF FFFF FFFF FFFF FFFF FFFF FFFF FFFF	RAW FFFF,FFFF,FFFF,FFFF,FFFF,FFFF,FFFF,FFFF,FFFF,FFFF
0011C3	FFFF FFFF FFFF FFFF FFFF FFFF FFFF FFFF FFFF FFFF	RAW FFFF,FFFF,FFFF,FFFF,FFFF,FFFF,FFFF,FFFF,FFFF,FFFF
0011CD	FFFF FFFF FFFF FFFF FFFF FFFF FFFF FFFF FFDE FFFF	RAW FFFF,FFFF,FFFF,FFFF,FFFF,FFFF,FFFF,FFFF,FFDE,FFFF
0011D7	FFFF FFFF FFFF FFFF FFFF FFFF FFFF FFFF FFFF FFFF	RAW FFFF,FFFF,FFFF,FFFF,FFFF,FFFF,FFFF,FFFF,FFFF,FFFF
0011E1	FFFF FFFF FFFF FFFF FFFF FFFF FFFF FFFF FFFF FFFF	RAW FFFF,FFFF,FFFF,FFFF,FFFF,FFFF,FFFF,FFFF,FFFF,FFFF
0011EB	FFFF FFFF FFFF FFFF FFFF FFFF FFFF FFFF FFFF DFFF	RAW FFFF,FFFF,FFFF,FFFF,FFFF,FFFF,FFFF,FFFF,FFFF,DFFF
0011F5	DFDF BFBF 9F9F 1D7E D45A A76E 83A3 0243 0102 0222 0201 0202 0222	RAW DFDF,BFBF,9F9F,1D7E,D45A,A76E,83A3,0243,0102,0222,0201,0202,0222
001202	0122 0202 0202 0102 0201 2222 6242 8AA2 9EBB FFDF FFFF FFFF FFFF	RAW 0122,0202,0202,0102,0201,2222,6242,8AA2,9EBB,FFDF,FFFF,FFFF,FFFF
00120F	FFFF FFFF FFFF FFFF FFFF FFFF FFFF FFFF FFFF FFFF	RAW FFFF,FFFF,FFFF,FFFF,FFFF,FFFF,FFFF,FFFF,FFFF,FFFF
001219	FFFF FFFF FFFF FFFF FFFF FFFF FFFF FFFF FFFF FFFF	RAW FFFF,FFFF,FFFF,FFFF,FFFF,FFFF,FFFF,FFFF,FFFF,FFFF
001223	FFFF FFFF FFFF FFFF FFFF FFFF FFFF FFFF FFDE FFFF	RAW FFFF,FFFF,FFFF,FFFF,FFFF,FFFF,FFFF,FFFF,FFDE,FFFF
00122D	FFFF FFFF FFFF FFFF FFFF FFFF FFFF FFFF FFFF FFFF	RAW FFFF,FFFF,FFFF,FFFF,FFFF,FFFF,FFFF,FFFF,FFFF,FFFF
001237	FFFF FFFF FFFF FFFF FFFF FFFF FFFF FFFF FFFF FFFF	RAW FFFF,FFFF,FFFF,FFFF,FFFF,FFFF,FFFF,FFFF,FFFF,FFFF
001241	FFFF FFFF FFFF FFFF FFFF FFFF FFFF FFFF FFFF FFFF	RAW FFFF,FFFF,FFFF,FFFF,FFFF,FFFF,FFFF,FFFF,FFFF,FFFF
00124B	FFDE FFFF FFFF FFFF DFFF DFFF BE9E 5D9E B37A 26AC	RAW FFDE,FFFF,FFFF,FFFF,DFFF,DFFF,BE9E,5D9E,B37A,26AC
001255	6263 2242 2222 0102 0101 0201 0102 0202 0102 0201 0202 0101 8221 56A3 DF7E FFFF	RAW 6263,2242,2222,0102,0101,0201,0102,0202,0102,0201,0202,0101,8221,56A3,DF7E,FFFF
001265	FFFF FFFF FFFF FFFF FFFF FFFF FFFF FFFF FFFF FFFF	RAW FFFF,FFFF,FFFF,FFFF,FFFF,FFFF,FFFF,FFFF,FFFF,FFFF
00126F	FFFF FFFF FFFF FFFF FFFF FFFF FFFF FFFF FFFF FFFF	RAW FFFF,FFFF,FFFF,FFFF,FFFF,FFFF,FFFF,FFFF,FFFF,FFFF
001279	FFFF FFFF FFFF FFFF FFFF FFFF FFFF FFFF FFFF FFFF	RAW FFFF,FFFF,FFFF,FFFF,FFFF,FFFF,FFFF,FFFF,FFFF,FFFF
001283	DEFF FFFF FFFF FFFF FFFF FFFF FFFF FFFF FFFF FFFF	RAW DEFF,FFFF,FFFF,FFFF,FFFF,FFFF,FFFF,FFFF,FFFF,FFFF
00128D	FFFF FFFF FFFF FFFF FFFF FFFF FFFF FFFF FFFF FFFF	RAW FFFF,FFFF,FFFF,FFFF,FFFF,FFFF,FFFF,FFFF,FFFF,FFFF
001297	FFFF FFFF FFFF FFFF FFFF FFFF FFFF FFFF FFFF FFFF	RAW FFFF,FFFF,FFFF,FFFF,FFFF,FFFF,FFFF,FFFF,FFFF,FFFF
0012A1	FFFF FFFF DEFF FFFF FFFF FFFF FFFF FFFF DFFF DEDE	RAW FFFF,FFFF,DEFF,FFFF,FFFF,FFFF,FFFF,FFFF,DFFF,DEDE
0012AB	9EBE 3D7E 5239 83E8 0163 4201 2201 0201 0102 0222 0201 0202 0102 0101 4201	RAW 9EBE,3D7E,5239,83E8,0163,4201,2201,0201,0102,0222,0201,0202,0102,0101,4201
0012BA	A462 7E4E FFDF FFDF FFFF FFFF FFFF FFFF FFFF FFFF	RAW A462,7E4E,FFDF,FFDF,FFFF,FFFF,FFFF,FFFF,FFFF,FFFF
0012C4	FFFF FFFF FFFF FFFF FFFF FFFF FFFF FFFF FFFF FFFF	RAW FFFF,FFFF,FFFF,FFFF,FFFF,FFFF,FFFF,FFFF,FFFF,FFFF
0012CE	FFFF FFFF FFFF FFFF FFFF FFFF FFFF FFFF FFFF FFFF	RAW FFFF,FFFF,FFFF,FFFF,FFFF,FFFF,FFFF,FFFF,FFFF,FFFF
0012D8	FFFF FFFF FFFF FFFF FFFF FFDE FFFF FFFF FFFF FFFF	RAW FFFF,FFFF,FFFF,FFFF,FFFF,FFDE,FFFF,FFFF,FFFF,FFFF
0012E2	FFFF FFFF FFFF FFFF FFFF FFFF FFFF FFFF FFFF FFFF	RAW FFFF,FFFF,FFFF,FFFF,FFFF,FFFF,FFFF,FFFF,FFFF,FFFF
0012EC	FFFF FFFF FFFF FFFF FFFF FFFF FFFF FFFF FFFF FFFF	RAW FFFF,FFFF,FFFF,FFFF,FFFF,FFFF,FFFF,FFFF,FFFF,FFFF
0012F6	FFFF FFFF FFFF FFFF FFFF FFFF FFFF FFDE FFFF FFFF	RAW FFFF,FFFF,FFFF,FFFF,FFFF,FFFF,FFFF,FFDE,FFFF,FFFF
001300	FFFF FFFF FFFF FFFF FFDF 9EDF D83D 466F 4263 2242 0202 0202	RAW FFFF,FFFF,FFFF,FFFF,FFDF,9EDF,D83D,466F,4263,2242,0202,0202
00130C	0102 0201 0203 0202 0201 0202 2201 4D62 BF7E FFFF FFFF FFFF FFFF FFFF	RAW 0102,0201,0203,0202,0201,0202,2201,4D62,BF7E,FFFF,FFFF,FFFF,FFFF,FFFF
00131A	FFFF FFFF FFFF FFFF FFFF FFFF FFFF FFFF FFFF FFFF	RAW FFFF,FFFF,FFFF,FFFF,FFFF,FFFF,FFFF,FFFF,FFFF,FFFF
001324	FFFF FFFF FFFF FFFF FFFF FFFF FFFF FFFF FFFF FFFF	RAW FFFF,FFFF,FFFF,FFFF,FFFF,FFFF,FFFF,FFFF,FFFF,FFFF
00132E	FFFF FFFF FFFF FFFF FFFF FFFF DEFF FFFF FFFF FFFF	RAW FFFF,FFFF,FFFF,FFFF,FFFF,FFFF,DEFF,FFFF,FFFF,FFFF
001338	FFFF FFFF FFFF FFFF FFFF FFFF FFFF FFFF FFFF FFFF	RAW FFFF,FFFF,FFFF,FFFF,FFFF,FFFF,FFFF,FFFF,FFFF,FFFF
001342	FFFF FFFF FFFF FFFF FFFF FFFF FFFF FFFF FFFF FFFF	RAW FFFF,FFFF,FFFF,FFFF,FFFF,FFFF,FFFF,FFFF,FFFF,FFFF
00134C	FFFF FFFF FFFF FFFF FFFF FFFF FFFF FFFF DEFF FFFF	RAW FFFF,FFFF,FFFF,FFFF,FFFF,FFFF,FFFF,FFFF,DEFF,FFFF
001356	FFFF FFFF FFFF FFFF FFFF FFFF FFFF DEFF BEBE 7E9E	RAW FFFF,FFFF,FFFF,FFFF,FFFF,FFFF,FFFF,DEFF,BEBE,7E9E
001360	0DF8 63E4 2201 0101 0101 0302 0202 0202 0202 0102 0222 8322 7EB3 FFFF FFFF	RAW 0DF8,63E4,2201,0101,0101,0302,0202,0202,0202,0102,0222,8322,7EB3,FFFF,FFFF
00136F	FFFF FFFF FFFF FFFF FFFF FFFF FFFF FFFF FFFF FFFF	RAW FFFF,FFFF,FFFF,FFFF,FFFF,FFFF,FFFF,FFFF,FFFF,FFFF
001379	FFFF FFFF FFFF FFFF FFFF FFFF FFFF FFFF FFFF FFFF	RAW FFFF,FFFF,FFFF,FFFF,FFFF,FFFF,FFFF,FFFF,FFFF,FFFF
001383	FFFF FFFF FFFF FFFF FFFF FFFF FFFF FFFF FFFF DEFF	RAW FFFF,FFFF,FFFF,FFFF,FFFF,FFFF,FFFF,FFFF,FFFF,DEFF
00138D	FFFF FFFF FFFF FFFF FFFF FFFF FFFF FFFF FFFF FFFF	RAW FFFF,FFFF,FFFF,FFFF,FFFF,FFFF,FFFF,FFFF,FFFF,FFFF
001397	FFFF FFFF FFFF FFFF FFFF FFFF FFFF FFFF FFFF FFFF	RAW FFFF,FFFF,FFFF,FFFF,FFFF,FFFF,FFFF,FFFF,FFFF,FFFF
0013A1	FFFF FFFF FFFF FFFF FFFF FFFF FFFF FFFF FFFF FFFF	RAW FFFF,FFFF,FFFF,FFFF,FFFF,FFFF,FFFF,FFFF,FFFF,FFFF
0013AB	FFFF DEFF FFFF FFFF FFFF FFFF FFFF FFFF FFDF FFFF	RAW FFFF,DEFF,FFFF,FFFF,FFFF,FFFF,FFFF,FFFF,FFDF,FFFF
0013B5	FFDF FFFF DFFF 7EBF 31BB 4246 4242 0222 0202 0102 0201 0302 2302 0101	RAW FFDF,FFFF,DFFF,7EBF,31BB,4246,4242,0222,0202,0102,0201,0302,2302,0101
0013C3	0202 7983 FFBD FFFF FFFF FFFF FFFF FFFF FFFF FFFF FFFF	RAW 0202,7983,FFBD,FFFF,FFFF,FFFF,FFFF,FFFF,FFFF,FFFF,FFFF
0013CE	FFFF FFFF FFFF FFFF FFFF FFFF FFFF FFFF FFFF FFFF	RAW FFFF,FFFF,FFFF,FFFF,FFFF,FFFF,FFFF,FFFF,FFFF,FFFF
0013D8	FFFF FFFF FFFF FFFF FFFF FFFF FFFF FFFF FFFF FFFF	RAW FFFF,FFFF,FFFF,FFFF,FFFF,FFFF,FFFF,FFFF,FFFF,FFFF
0013E2	FFFF FFFF FFFF FFDE FFFF FFFF FFFF FFFF FFFF FFFF	RAW FFFF,FFFF,FFFF,FFDE,FFFF,FFFF,FFFF,FFFF,FFFF,FFFF
0013EC	FFFF FFFF FFFF FFFF FFFF FFFF FFFF FFFF FFFF FFFF	RAW FFFF,FFFF,FFFF,FFFF,FFFF,FFFF,FFFF,FFFF,FFFF,FFFF
0013F6	FFFF FFFF FFFF FFFF FFFF FFFF FFFF FFFF FFFF FFFF	RAW FFFF,FFFF,FFFF,FFFF,FFFF,FFFF,FFFF,FFFF,FFFF,FFFF
001400	FFFF FFFF FFFF FFFF FFFF FFDE FFFF FFFF FFFF FFFF	RAW FFFF,FFFF,FFFF,FFFF,FFFF,FFDE,FFFF,FFFF,FFFF,FFFF
00140A	FFFF FFFF FFFF FFFF FFFF FFFF DFDF 9EBE 933C 4346 2223	RAW FFFF,FFFF,FFFF,FFFF,FFFF,FFFF,DFDF,9EBE,933C,4346,2223
001415	2201 0101 0201 0202 0103 0102 4301 CB22 FF3C FFFF FFFF FFFF FFFF FFFF	RAW 2201,0101,0201,0202,0103,0102,4301,CB22,FF3C,FFFF,FFFF,FFFF,FFFF,FFFF
001423	FFFF FFFF FFFF FFFF FFFF FFFF FFFF FFFF FFFF FFFF	RAW FFFF,FFFF,FFFF,FFFF,FFFF,FFFF,FFFF,FFFF,FFFF,FFFF
00142D	FFFF FFFF FFFF FFFF FFFF FFFF FFFF FFFF FFFF FFFF	RAW FFFF,FFFF,FFFF,FFFF,FFFF,FFFF,FFFF,FFFF,FFFF,FFFF
001437	FFFF FFFF FFFF FFFF FFFF FFFF FFDE FFFF FFFF FFFF	RAW FFFF,FFFF,FFFF,FFFF,FFFF,FFFF,FFDE,FFFF,FFFF,FFFF
001441	FFFF FFFF FFFF FFFF FFFF FFFF FFFF FFFF FFFF FFFF	RAW FFFF,FFFF,FFFF,FFFF,FFFF,FFFF,FFFF,FFFF,FFFF,FFFF
00144B	FFFF FFFF FFFF FFFF FFFF FFFF FFFF FFFF FFFF FFFF	RAW FFFF,FFFF,FFFF,FFFF,FFFF,FFFF,FFFF,FFFF,FFFF,FFFF
001455	FFFF FFFF FFFF FFFF FFFF FFFF FFFF FFFF FFDE FFFF	RAW FFFF,FFFF,FFFF,FFFF,FFFF,FFFF,FFFF,FFFF,FFDE,FFFF
00145F	FFFF FFFF FFFF FFFF FFFF FFFF FFFF FFFF FFFF FFFF	RAW FFFF,FFFF,FFFF,FFFF,FFFF,FFFF,FFFF,FFFF,FFFF,FFFF
001469	FFFF 9EDF 721D 43A4 2242 0121 0101 0202 0202 0102 0101 A363 FFB6 FFFF	RAW FFFF,9EDF,721D,43A4,2242,0121,0101,0202,0202,0102,0101,A363,FFB6,FFFF
001477	FFFF FFFF FFFF FFFF FFFF FFFF FFFF FFFF FFFF FFFF	RAW FFFF,FFFF,FFFF,FFFF,FFFF,FFFF,FFFF,FFFF,FFFF,FFFF
001481	FFFF FFFF FFFF FFFF FFFF FFFF FFFF FFDF FFFF FFFF	RAW FFFF,FFFF,FFFF,FFFF,FFFF,FFFF,FFFF,FFDF,FFFF,FFFF
00148B	FFFF FFFF FFFF FFFF DFFF DFFF FFFF FFFF FFFF FFFF	RAW FFFF,FFFF,FFFF,FFFF,DFFF,DFFF,FFFF,FFFF,FFFF,FFFF
001495	FFFF FFFF FFFF FFFF FFFF FFFF FFFF FFFF FFFF FFFF	RAW FFFF,FFFF,FFFF,FFFF,FFFF,FFFF,FFFF,FFFF,FFFF,FFFF
00149F	FFFF FFFF FFFF DFFF FFFF FFFF FFFF FFFF FFFF FFFF	RAW FFFF,FFFF,FFFF,DFFF,FFFF,FFFF,FFFF,FFFF,FFFF,FFFF
0014A9	FFFF FFFF FFFF FFFF FFFF FFFF FFFF FFFF FFFF FFFF	RAW FFFF,FFFF,FFFF,FFFF,FFFF,FFFF,FFFF,FFFF,FFFF,FFFF
0014B3	FFFF FFFF FFFF FFFF FFFF FFFF FFFF FFFF FFFF FFFF	RAW FFFF,FFFF,FFFF,FFFF,FFFF,FFFF,FFFF,FFFF,FFFF,FFFF
0014BD	FFFF FFFF FFFF FFFF FFFF DEFF 9DDF AC3D 4384 0201 0202 0202	RAW FFFF,FFFF,FFFF,FFFF,FFFF,DEFF,9DDF,AC3D,4384,0201,0202,0202
0014C9	0202 0202 0102 8221 DFAE FEFF FFFF 9EDF 9E9E 9E9E DF9E FFFF	RAW 0202,0202,0102,8221,DFAE,FEFF,FFFF,9EDF,9E9E,9E9E,DF9E,FFFF
0014D5	FFFF FFFF FFFF FFFF DFFF BFBF BFBF FFFF FFFF 9EDF	RAW FFFF,FFFF,FFFF,FFFF,DFFF,BFBF,BFBF,FFFF,FFFF,9EDF
0014DF	9E9F 9E9E BEBE FFDE FFFF FFDE FFDF FFFF FFFF FFDF	RAW 9E9F,9E9E,BEBE,FFDE,FFFF,FFDE,FFDF,FFFF,FFFF,FFDF
0014E9	FFFF FFFF FFFF FFFF FFFF FFFF FFFF FFFF FFFF FFFF	RAW FFFF,FFFF,FFFF,FFFF,FFFF,FFFF,FFFF,FFFF,FFFF,FFFF
0014F3	FFFF FFFF FFFF FFFF FFFF FFFF FFFF DFFF DFFF FFDF	RAW FFFF,FFFF,FFFF,FFFF,FFFF,FFFF,FFFF,DFFF,DFFF,FFDF
0014FD	FFFF DFFF FFFF FFFF FFFF FFFF FFFF FFFF FFDF FFFF	RAW FFFF,DFFF,FFFF,FFFF,FFFF,FFFF,FFFF,FFFF,FFDF,FFFF
001507	FFFF FFFF FFFF FFFF FFFF FFFF FFFF FFFF FFFF FFFF	RAW FFFF,FFFF,FFFF,FFFF,FFFF,FFFF,FFFF,FFFF,FFFF,FFFF
001511	FFFF FFFF FFFF FFFF FFFF FFFF FFFF FFFF FFFF FFFF	RAW FFFF,FFFF,FFFF,FFFF,FFFF,FFFF,FFFF,FFFF,FFFF,FFFF
00151B	FFFF 5EBE 8353 0263 0202 0102 0201 0302 0102 4121 FF29 FFFF DEFF AEDA	RAW FFFF,5EBE,8353,0263,0202,0102,0201,0302,0102,4121,FF29,FFFF,DEFF,AEDA
001529	AFAF 10AF 1C34 DFBE FFFF FFFF FFFF FFFF 7DFF B471	RAW AFAF,10AF,1C34,DFBE,FFFF,FFFF,FFFF,FFFF,7DFF,B471
001533	BEDC FFDE FFFF EF3B CFAF 11AF 1BD3 DF9D FFDF 3CFF 30AE	RAW BEDC,FFDE,FFFF,EF3B,CFAF,11AF,1BD3,DF9D,FFDF,3CFF,30AE
00153E	0F30 7592 FF7D FFFF FFFF FFFF FFFF FFFF FFFF FFFF	RAW 0F30,7592,FF7D,FFFF,FFFF,FFFF,FFFF,FFFF,FFFF,FFFF
001548	FFFF FFFF FFFF FFFF FFFF FFFF FFFF FFFF FFFF FFFF	RAW FFFF,FFFF,FFFF,FFFF,FFFF,FFFF,FFFF,FFFF,FFFF,FFFF
001552	FFFF FFFF FFFF AE7D 30EF 9110 BE75 FFFF FFDF FFFF	RAW FFFF,FFFF,FFFF,AE7D,30EF,9110,BE75,FFFF,FFDF,FFFF
00155C	FFFF FFFF FFFF FFFF FFFF FFFF FFFF FFFF FFFF FFFF	RAW FFFF,FFFF,FFFF,FFFF,FFFF,FFFF,FFFF,FFFF,FFFF,FFFF
001566	FFFF FFFF FFFF FFFF FFFF FFFF FFFF FFFF FFFF FFFF	RAW FFFF,FFFF,FFFF,FFFF,FFFF,FFFF,FFFF,FFFF,FFFF,FFFF
001570	FFFF FFFF FFDF FFFF DEFF 399D 6304 0202 0102 0201 0202 0102 0221	RAW FFFF,FFFF,FFDF,FFFF,DEFF,399D,6304,0202,0102,0201,0202,0102,0221
00157D	FFE5 FFFF BEDF 62D3 6362 6262 24A3 BF18 FFFF FFFF FFFF	RAW FFE5,FFFF,BEDF,62D3,6362,6262,24A3,BF18,FFFF,FFFF,FFFF
001588	FFFF 17DE A404 95C4 DEBD FFFF 0438 6282 8483 E3A3 BFB6	RAW FFFF,17DE,A404,95C4,DEBD,FFFF,0438,6282,8483,E3A3,BFB6
001593	FFFF 13DF A200 A2A2 8282 1841 FFDF FFFF FFFF FFFF FFFF	RAW FFFF,13DF,A200,A2A2,8282,1841,FFDF,FFFF,FFFF,FFFF,FFFF
00159E	FFFF FFFF FFFF FFFF FFFF FFFF FFFF FFFF FFFF FFFF	RAW FFFF,FFFF,FFFF,FFFF,FFFF,FFFF,FFFF,FFFF,FFFF,FFFF
0015A8	FFFF FFFF FFFF FFFF DEFF 4075 C281 41A2 2061 FF59 FFFF	RAW FFFF,FFFF,FFFF,FFFF,DEFF,4075,C281,41A2,2061,FF59,FFFF
0015B3	FFFF FFFF FFFF FFFF FFFF FFFF FFFF FFFF FFFF FFFF	RAW FFFF,FFFF,FFFF,FFFF,FFFF,FFFF,FFFF,FFFF,FFFF,FFFF
0015BD	FFFF FFFF FFFF FFFF FFFF FFFF FFFF FFFF FFFF FFFF	RAW FFFF,FFFF,FFFF,FFFF,FFFF,FFFF,FFFF,FFFF,FFFF,FFFF
0015C7	FFFF FFFF FFFF FFFF FFFF FFFE 9DFE C71C 0162 2201 0202 0202	RAW FFFF,FFFF,FFFF,FFFF,FFFF,FFFE,9DFE,C71C,0162,2201,0202,0202
0015D3	0102 2201 FFA5 FFFF 5DBF 638A 2222 4323 4242 3D25 FFFF FFFF	RAW 0102,2201,FFA5,FFFF,5DBF,638A,2222,4323,4242,3D25,FFFF,FFFF
0015DF	FFDF FFFF 51BE 6282 E483 BF59 FFFF E41C 4262 2222 4222	RAW FFDF,FFFF,51BE,6282,E483,BF59,FFFF,E41C,4262,2222,4222
0015EA	DBC4 FFDF CAFF C340 C2A2 C2C2 A261 FF5D FFFF FFFF	RAW DBC4,FFDF,CAFF,C340,C2A2,C2C2,A261,FF5D,FFFF,FFFF
0015F4	FFFF FFFF FFFF FFFF FFFF FFFF FFFF FFFF FFFF FFFF	RAW FFFF,FFFF,FFFF,FFFF,FFFF,FFFF,FFFF,FFFF,FFFF,FFFF
0015FE	FFFF FFFF FFFF FFFF FFFF FFFF FFFF 400B 82E3 C3C3	RAW FFFF,FFFF,FFFF,FFFF,FFFF,FFFF,FFFF,400B,82E3,C3C3
001608	61E3 3C81 FFFF FFFF FFFF FFFF FFFF FFFF FFFF FFFF	RAW 61E3,3C81,FFFF,FFFF,FFFF,FFFF,FFFF,FFFF,FFFF,FFFF
001612	FFFF FFFF FFFF FFFF FFFF FFFF FFFF FFFF FFFF FFFF	RAW FFFF,FFFF,FFFF,FFFF,FFFF,FFFF,FFFF,FFFF,FFFF,FFFF
00161C	FFFF FFFF FFFF FFFF FFFF DFFF FFFF FFBF FFFF FFFF	RAW FFFF,FFFF,FFFF,FFFF,FFFF,DFFF,FFFF,FFBF,FFFF,FFFF
001626	FB9E 22C7 2101 0201 0202 0202 2202 FF26 FFFF 38BF 42A3 0202 0203 0102	RAW FB9E,22C7,2101,0201,0202,0202,2202,FF26,FFFF,38BF,42A3,0202,0203,0102
001634	9AA3 FFFF FFFF FFDF FFFF 089E 0121 8242 BFF4 DFFF D79F	RAW 9AA3,FFFF,FFFF,FFDF,FFFF,089E,0121,8242,BFF4,DFFF,D79F
00163F	A4A3 6343 6384 D7C4 FFBE 613C 81C2 C3E3 C3C2 61E3 FF18	RAW A4A3,6343,6384,D7C4,FFBE,613C,81C2,C3E3,C3C2,61E3,FF18
00164A	FFFF FFFF FFFF FFFF FFFF FFFF FFFF FFFF FFFF FFFF	RAW FFFF,FFFF,FFFF,FFFF,FFFF,FFFF,FFFF,FFFF,FFFF,FFFF
001654	FFFF FFFF FFFF FFFF FFFF FFFF FFFF DFFF 3BFF A2A2	RAW FFFF,FFFF,FFFF,FFFF,FFFF,FFFF,FFFF,DFFF,3BFF,A2A2
00165E	C2C2 A2C3 E3A2 7941 FFDF FFFF FFFF FFFF FFFF FFFF	RAW C2C2,A2C3,E3A2,7941,FFDF,FFFF,FFFF,FFFF,FFFF,FFFF
001668	FFFF FFFF FFFF FFFF FFFF FFFF FFFF FFFF FFFF FFFF	RAW FFFF,FFFF,FFFF,FFFF,FFFF,FFFF,FFFF,FFFF,FFFF,FFFF
001672	FFFF FFFF FFFF FFFF FFFF FFFF FFFF FFFF FFFF FFFF	RAW FFFF,FFFF,FFFF,FFFF,FFFF,FFFF,FFFF,FFFF,FFFF,FFFF
00167C	FFDF FFFF BEFF 6299 2102 0222 0202 0202 4223 DF29 FFFF 929E	RAW FFDF,FFFF,BEFF,6299,2102,0222,0202,0202,4223,DF29,FFFF,929E
001688	4182 2322 0202 2122 1C04 FFFF FFFF FFDF DFFF A35A 2101 E441	RAW 4182,2322,0202,2122,1C04,FFFF,FFFF,FFDF,DFFF,A35A,2101,E441
001694	BE19 DFDF 9EBF F87D 92F4 5252 3C31 FFFF 40F6 03C2 C381	RAW BE19,DFDF,9EBF,F87D,92F4,5252,3C31,FFFF,40F6,03C2,C381
00169F	C2C2 A2C2 FF1C FFFF FFFF FFFF FFFF FFFF FFFF FFFF	RAW C2C2,A2C2,FF1C,FFFF,FFFF,FFFF,FFFF,FFFF,FFFF,FFFF
0016A9	FFFF FFFF FFFF FFFF DFFF FFFF FFFF FFFF FFFF FFFF	RAW FFFF,FFFF,FFFF,FFFF,DFFF,FFFF,FFFF,FFFF,FFFF,FFFF
0016B3	FFFF 75FF C220 C2C2 A2C2 A2C3 1CA2 FFFF FFFF FFFF	RAW FFFF,75FF,C220,C2C2,A2C2,A2C3,1CA2,FFFF,FFFF,FFFF
0016BD	FFFF FFFF FFFF FFFF FFFF FFFF FFFF FFFF FFFF FFFF	RAW FFFF,FFFF,FFFF,FFFF,FFFF,FFFF,FFFF,FFFF,FFFF,FFFF
0016C7	FFFF FFFF FFFF FFFF FFFF FFFF FFFF FFFF FFFF FFFF	RAW FFFF,FFFF,FFFF,FFFF,FFFF,FFFF,FFFF,FFFF,FFFF,FFFF
0016D1	FFFF FFFF FFFF FFBF FFFF DFFF D37D 2162 0201 0202 0202 6223	RAW FFFF,FFFF,FFFF,FFBF,FFFF,DFFF,D37D,2162,0201,0202,0202,6223
0016DD	FFCF FFFF 6A7D 2141 0202 0102 4122 9E0C FFFF FFFF FFDF 9FDF	RAW FFCF,FFFF,6A7D,2141,0202,0102,4122,9E0C,FFFF,FFFF,FFDF,9FDF
0016E9	42B3 0101 C841 9E3D 1DDF DBBB 3D3C 5D3C 7D5D DF9E FFFF 406C	RAW 42B3,0101,C841,9E3D,1DDF,DBBB,3D3C,5D3C,7D5D,DF9E,FFFF,406C
0016F5	A2C2 C3C2 A2C2 8A61 FFFF FFFF FFFF FFFF FFFF FFFF	RAW A2C2,C3C2,A2C2,8A61,FFFF,FFFF,FFFF,FFFF,FFFF,FFFF
0016FF	FFFF FFFF FFFF BEFF 5C7D 5D5D 5D3C 5D5D 5C3C BE7D FFFF	RAW FFFF,FFFF,FFFF,BEFF,5C7D,5D5D,5D3C,5D5D,5C3C,BE7D,FFFF
00170A	FFDF FFFF 6DFF C240 A2C2 A2E2 41A2 FFCB FFFF FFFF	RAW FFDF,FFFF,6DFF,C240,A2C2,A2E2,41A2,FFCB,FFFF,FFFF
001714	FFFF FFFF FFFF FFFF FFFF 5DFF 5D5D 5D5D 5D5D 5C5D 5C3C	RAW FFFF,FFFF,FFFF,FFFF,FFFF,5DFF,5D5D,5D5D,5D5D,5C5D,5C3C
00171F	BE7D FFFF FFFF BEFF 3C5D 5D5C 5D5D 5D5D 7D7D 3D5D 5C3D 7D7D	RAW BE7D,FFFF,FFFF,BEFF,3C5D,5D5C,5D5D,5D5D,7D7D,3D5D,5C3D,7D7D
00172B	3D5D 9E3D FFFF FFFF 3CBE 4108 0201 0202 0202 A302 FE54 DFFE 839A	RAW 3D5D,9E3D,FFFF,FFFF,3CBE,4108,0201,0202,0202,A302,FE54,DFFE,839A
001738	0202 0323 0202 8121 9E34 FFDF FFFF FFFF 5DDE 628A 0100 3162 DF9E	RAW 0202,0323,0202,8121,9E34,FFDF,FFFF,FFFF,5DDE,628A,0100,3162,DF9E
001745	865D C4A3 A3A3 CB25 9D58 FFDE BEFF 8224 C3A3 C2A2 A2C2	RAW 865D,C4A3,A3A3,CB25,9D58,FFDE,BEFF,8224,C3A3,C2A2,A2C2
001750	F340 FFFF FFFF FFFF FFFF FFFF FFFF FFFF FFFF 95FF	RAW F340,FFFF,FFFF,FFFF,FFFF,FFFF,FFFF,FFFF,FFFF,95FF
00175A	44AA C3C2 E3E3 E303 E304 C3E3 04C2 FFF3 FFFF FFFF 039E	RAW 44AA,C3C2,E3E3,E303,E304,C3E3,04C2,FFF3,FFFF,FFFF,039E
001765	C282 C2C2 A2E2 40C3 FF55 DFFF FFFF FFFF FFFF FFFF	RAW C282,C2C2,A2E2,40C3,FF55,DFFF,FFFF,FFFF,FFFF,FFFF
00176F	BEFF 8AD3 C244 E3E3 E3E3 C304 C3E3 E303 04A2 DF8E FFFF	RAW BEFF,8AD3,C244,E3E3,E3E3,C304,C3E3,E303,04A2,DF8E,FFFF
00177A	71FF E341 E3E3 E3E3 E3C3 E3C3 C3C3 E3C3 E3E3 E3E3	RAW 71FF,E341,E3E3,E3E3,E3C3,E3C3,C3C3,E3C3,E3E3,E3E3
001784	C3A3 5D69 FFFF 9EDF 6155 0121 0302 0102 6562 FEDA BEDE 4276	RAW C3A3,5D69,FFFF,9EDF,6155,0121,0302,0102,6562,FEDA,BEDE,4276
001790	0302 0202 0102 C241 BFB9 FFFF FFFF FFFF 79BE 21C3 0122 5963	RAW 0302,0202,0102,C241,BFB9,FFFF,FFFF,FFFF,79BE,21C3,0122,5963
00179C	BEDF 83D7 0101 2202 6142 DAE3 FFFE 17FF C361 C2C3 C2C2	RAW BEDF,83D7,0101,2202,6142,DAE3,FFFE,17FF,C361,C2C3,C2C2
0017A7	C3C2 DB41 FFFF FFFF FFFF FFFF FFFF FFFF FFFF 34FF 4103	RAW C3C2,DB41,FFFF,FFFF,FFFF,FFFF,FFFF,FFFF,FFFF,34FF,4103
0017B2	A2A2 E3A2 C3A2 A2A2 6182 C2C3 62C2 7961 FFFF AE5D 81AA	RAW A2A2,E3A2,C3A2,A2A2,6182,C2C3,62C2,7961,FFFF,AE5D,81AA
0017BD	E2C2 E281 C2C2 A281 0F4C 8E8D 0CAE BECB FFFF FFFF	RAW E2C2,E281,C2C2,A281,0F4C,8E8D,0CAE,BECB,FFFF,FFFF
0017C7	A2F3 6141 A2A2 E3E3 C3A2 82A2 0020 C3A2 82C2 D320 FFFF	RAW A2F3,6141,A2A2,E3E3,C3A2,82A2,0020,C3A2,82C2,D320,FFFF
0017D2	C7FF C261 A2A2 A2C3 82C3 A2C3 0081 0000 0000 C381 C3A3 6D00	RAW C7FF,C261,A2A2,A2C3,82C3,A2C3,0081,0000,0000,C381,C3A3,6D00
0017DE	FFFF DFDF 041C 0201 0202 2201 3062 FF7C 7DFE 412C 0201 0202 0102 0C62	RAW FFFF,DFDF,041C,0201,0202,2201,3062,FF7C,7DFE,412C,0201,0202,0102,0C62
0017EC	DF9D DFFF FFFF FFDF D4BE 2283 0122 7E67 9DDF 42EF 0122	RAW DF9D,DFFF,FFFF,FFDF,D4BE,2283,0122,7E67,9DDF,42EF,0122
0017F7	0101 4201 EFA2 FFBE 50FF 6220 A2C4 C2C2 61C2 FFE7 FFFF	RAW 0101,4201,EFA2,FFBE,50FF,6220,A2C4,C2C2,61C2,FFE7,FFFF
001802	FFFF FFFF FFFF FFFF FFFF DEFF 41CB C3A2 82A2 A2C2	RAW FFFF,FFFF,FFFF,FFFF,FFFF,DEFF,41CB,C3A2,82A2,A2C2
00180C	A2C2 4561 912C 8245 A2E3 3481 BEDF 00A2 A261 A2C3 C2C2	RAW A2C2,4561,912C,8245,A2E3,3481,BEDF,00A2,A261,A2C3,C2C2
001817	C3C2 A2E3 2040 4020 0020 FFAE FFFF 283C 8240 C2E3 C2E3	RAW C3C2,A2E3,2040,4020,0020,FFAE,FFFF,283C,8240,C2E3,C2E3
001822	C3A2 41A2 6D86 7592 8148 C2A2 AE82 DFFF 4059 C3C3 C2A2	RAW C3A2,41A2,6D86,7592,8148,C2A2,AE82,DFFF,4059,C3C3,C2A2
00182D	A2C2 E382 E361 130F F2B2 B6D2 812C A2C3 48A2 FFFF FFFF	RAW A2C2,E382,E361,130F,F2B2,B6D2,812C,A2C3,48A2,FFFF,FFFF
001838	AB7E 2342 0202 0102 7982 FFDE FCDF 6225 0101 0202 0102 7142 7E3C	RAW AB7E,2342,0202,0102,7982,FFDE,FCDF,6225,0101,0202,0102,7142,7E3C
001845	5E9E 5D7E 9E9E CC1C 0222 4202 9E8F 3CDF 43E7 0102 0201 0202 EF83	RAW 5E9E,5D7E,9E9E,CC1C,0222,4202,9E8F,3CDF,43E7,0102,0201,0202,EF83
001852	FF9D C6FF E461 C382 A2A2 00E3 FF71 FFFF FFFF FFFF	RAW FF9D,C6FF,E461,C382,A2A2,00E3,FF71,FFFF,FFFF,FFFF
00185C	FFFF FFFF FFFF 249D A261 A2A2 E3C2 E3A2 C341 DF75	RAW FFFF,FFFF,FFFF,249D,A261,A2A2,E3C2,E3A2,C341,DF75
001866	5CFF 82C3 A2A2 BA61 AEFF 8520 C3E3 C282 C2A2 C2C2	RAW 5CFF,82C3,A2A2,BA61,AEFF,8520,C3E3,C282,C2A2,C2C2
001870	C2A2 0324 0324 71A2 FFFF 79FF 4182 C3E3 C3A2 C2A2 41E3	RAW C2A2,0324,0324,71A2,FFFF,79FF,4182,C3E3,C3A2,C2A2,41E3
00187B	1845 FFFF FFFF 4148 C3C3 5500 FFDF 4110 A2C2 C3C3 C2C2	RAW 1845,FFFF,FFFF,4148,C3C3,5500,FFDF,4110,A2C2,C3C3,C2C2
001886	61C2 9E8A FFFF FFFF FFFF 2030 E3C2 8D20 FFFF FFFF 729E	RAW 61C2,9E8A,FFFF,FFFF,FFFF,2030,E3C2,8D20,FFFF,FFFF,729E
001891	0262 2203 4121 9D4D FFFE 97BF 2283 0201 0202 0202 4622 87A7 A787	RAW 0262,2203,4121,9D4D,FFFE,97BF,2283,0201,0202,0202,4622,87A7,A787
00189E	87A7 87A8 6286 0122 6322 9E76 179E 22A3 0102 0201 0203 1863 DFBE	RAW 87A7,87A8,6286,0122,6322,9E76,179E,22A3,0102,0201,0203,1863,DFBE
0018AB	61BA C2C2 C2C2 A2C2 40A2 FF58 FFFF FFFF FFFF FFFF	RAW 61BA,C2C2,C2C2,A2C2,40A2,FF58,FFFF,FFFF,FFFF,FFFF
0018B5	FFFF FFFF 20C7 A2C2 A2E3 A2C2 41C2 1C24 FFFF 54FF A220	RAW FFFF,FFFF,20C7,A2C2,A2E3,A2C2,41C2,1C24,FFFF,54FF,A220
0018C0	61E3 DFA6 5DFF 58FF C261 A2C2 C2C2 C2A2 F781 BEFF 7D9D	RAW 61E3,DFA6,5DFF,58FF,C261,A2C2,C2C2,C2A2,F781,BEFF,7D9D
0018CB	DFDF DFFF 417D A261 C2C3 A2C3 E3C3 4820 FFFF FFFF DAFF	RAW DFDF,DFFF,417D,A261,C2C3,A2C3,E3C3,4820,FFFF,FFFF,DAFF
0018D6	A261 C2C3 1C61 DFFF 6128 C2C2 A2C2 C2A2 6940 FFFF FFFF	RAW A261,C2C3,1C61,DFFF,6128,C2C2,A2C2,C2A2,6940,FFFF,FFFF
0018E1	FFFF BEFF A244 E3A2 7541 FFFF FFFF D39E 2383 0102 C342	RAW FFFF,BEFF,A244,E3A2,7541,FFFF,FFFF,D39E,2383,0102,C342
0018EC	BE59 DFFF 8F9F 2263 0201 0201 0202 8322 4263 6363 6363 6363 0162 2201	RAW BE59,DFFF,8F9F,2263,0201,0201,0202,8322,4263,6363,6363,6363,0162,2201
0018FA	0442 9EDB 729E 2242 0102 0201 2303 1CE5 FFDE 20D3 C2C2 C2C2	RAW 0442,9EDB,729E,2242,0102,0201,2303,1CE5,FFDE,20D3,C2C2,C2C2
001906	C3A2 4461 FF9D FFFF FFFF FFFF FFFF FFFF 8AFF E300 A2C2	RAW C3A2,4461,FF9D,FFFF,FFFF,FFFF,FFFF,FFFF,8AFF,E300,A2C2
001911	C2A2 A2C2 4182 FF3C FFFF 0BDE A240 41A2 FFCE FFDE 34FF	RAW C2A2,A2C2,4182,FF3C,FFFF,0BDE,A240,41A2,FFCE,FFDE,34FF
00191C	A220 A2A2 A2E3 81C2 DE24 FFFF FFFF FFFF FFFF 20E7	RAW A220,A2A2,A2E3,81C2,DE24,FFFF,FFFF,FFFF,FFFF,20E7
001926	E3E3 C2A2 A2A2 61C2 DEE7 FFFF FFFF B2FF A241 61A2 DF28	RAW E3E3,C2A2,A2A2,61C2,DEE7,FFFF,FFFF,B2FF,A241,61A2,DF28
001931	DBFF A282 E3C2 C2C2 A2C2 5840 FFFF FFFF FFFF 79FF	RAW DBFF,A282,E3C2,C2C2,A2C2,5840,FFFF,FFFF,FFFF,79FF
00193B	C240 82C2 5C61 FFFF FFFF D37E 2283 2102 3082 DE9D DFFF	RAW C240,82C2,5C61,FFFF,FFFF,D37E,2283,2102,3082,DE9D,DFFF
001946	A75D 2221 0102 0122 4343 CB87 ECCB ACAC CCCC ECCC 0246 0202 4C42	RAW A75D,2221,0102,0122,4343,CB87,ECCB,ACAC,CCCC,ECCC,0246,0202,4C42
001953	DF9D 4A5E 0222 0102 0101 6201 9D2D FFFF 418A E2A2 C2C2 C3A2	RAW DF9D,4A5E,0222,0102,0101,6201,9D2D,FFFF,418A,E2A2,C2C2,C3A2
00195F	8E41 FFFF FFFF FFFF FFFF FFFF FFFF 2095 C2C3 C2A2	RAW 8E41,FFFF,FFFF,FFFF,FFFF,FFFF,FFFF,2095,C2C3,C2A2
001969	E3C2 C2A2 9500 FFFF FFFF 81F7 C3A2 20C2 FF17 DFFF 48FF	RAW E3C2,C2A2,9500,FFFF,FFFF,81F7,C3A2,20C2,FF17,DFFF,48FF
001974	A281 C3C2 C382 20E3 FFCE FFFF FFFF FFDF D3FF E300	RAW A281,C3C2,C382,20E3,FFCE,FFFF,FFFF,FFDF,D3FF,E300
00197E	A2C2 C2C2 A2E2 20E3 DE58 FFFF FFFF C6FF C281 41A2	RAW A2C2,C2C2,A2E2,20E3,DE58,FFFF,FFFF,C6FF,C281,41A2
001988	FF92 14DF E320 A2C2 C2A2 81C2 9DE3 FFFF FFDF FFFF	RAW FF92,14DF,E320,A2C2,C2A2,81C2,9DE3,FFFF,FFDF,FFFF
001992	50FF C300 61C3 DFCB FFFF FFFF B39F 2242 4122 3C45 FFDF	RAW 50FF,C300,61C3,DFCB,FFFF,FFFF,B39F,2242,4122,3C45,FFDF
00199D	BEFF A358 0200 0102 2201 8402 3D77 5E5D 5E5E 7E3D DB3D 23A7 2202	RAW BEFF,A358,0200,0102,2201,8402,3D77,5E5D,5E5E,7E3D,DB3D,23A7,2202
0019AA	9562 BF9D 839B 0222 2202 2201 6242 BE14 BBFF C362 A2A2 C2C2	RAW 9562,BF9D,839B,0222,2202,2201,6242,BE14,BBFF,C362,A2A2,C2C2
0019B6	C2C3 F740 FFFF FFFF FFFF FFFF FFFF FFFF 61C7 A2C3	RAW C2C3,F740,FFFF,FFFF,FFFF,FFFF,FFFF,FFFF,61C7,A2C3
0019C0	C2A2 A2C2 81C2 BE85 FFFF 91FF A220 A2C2 4541 FFDE	RAW C2A2,A2C2,81C2,BE85,FFFF,91FF,A220,A2C2,4541,FFDE
0019CA	FFFF 81FB A2C2 A2C3 82E3 40E3 FFF7 FFFF FFFF DFFF	RAW FFFF,81FB,A2C2,A2C3,82E3,40E3,FFF7,FFFF,FFFF,DFFF
0019D4	E3BE C282 C2A2 C2C2 C2C2 6941 FFFF FFFF FFFF 61BA	RAW E3BE,C282,C2A2,C2C2,C2C2,6941,FFFF,FFFF,FFFF,61BA
0019DE	C2A1 40E3 FFBA 8AFF A281 C2E3 A2C3 41C2 FF2C FFFF	RAW C2A1,40E3,FFBA,8AFF,A281,C2E3,A2C3,41C2,FF2C,FFFF
0019E8	FFFF FFFF E7FF A282 20A2 FFF3 FFFF FFFF CF9E 2142 A241	RAW FFFF,FFFF,E7FF,A282,20A2,FFF3,FFFF,FFFF,CF9E,2142,A241
0019F3	9ED7 FFFF 7DFF 8271 0121 0102 0122 4622 9EDC DFBF DEDF DFDE	RAW 9ED7,FFFF,7DFF,8271,0121,0102,0122,4622,9EDC,DFBF,DEDF,DFDE
0019FF	F77E 2283 0102 BBA3 9EDF 6314 0202 0202 2101 C321 9E9A D2FF C320	RAW F77E,2283,0102,BBA3,9EDF,6314,0202,0202,2101,C321,9E9A,D2FF,C320
001A0C	C2A2 C2A2 82A2 BE44 FFFF FFFF FFFF FFFF FFFF 9AFF	RAW C2A2,C2A2,82A2,BE44,FFFF,FFFF,FFFF,FFFF,FFFF,9AFF
001A16	A240 C3C2 C3A2 C2C2 A2C2 2C85 AAAA 6144 C2C2 81E3 9600	RAW A240,C3C2,C3A2,C2C2,A2C2,2C85,AAAA,6144,C2C2,81E3,9600
001A21	FFFF FFFF 4014 A2C2 C3A2 A2A2 E3A2 FF7D FFFF FFFF	RAW FFFF,FFFF,4014,A2C2,C3A2,A2A2,E3A2,FF7D,FFFF,FFFF
001A2B	FFFF 2038 A2C2 C2C2 A2C2 C2C3 F320 FFFF FFFF FFFF	RAW FFFF,2038,A2C2,C2C2,A2C2,C2C3,F320,FFFF,FFFF,FFFF
001A35	20D3 A2E2 2861 FFDF A23C C2A2 C2C2 A2C2 21C2 FF76 FFFF	RAW 20D3,A2E2,2861,FFDF,A23C,C2A2,C2C2,A2C2,21C2,FF76,FFFF
001A40	FFFF FFFF 61BA A2A2 61A2 FFDA FFFF FFFF 297D 2121 B382	RAW FFFF,FFFF,61BA,A2A2,61A2,FFDA,FFFF,FFFF,297D,2121,B382
001A4B	DF7E FFFF 3CFF 6169 0221 0203 0001 4E63 DF7E FFFF FFFF FFFF	RAW DF7E,FFFF,3CFF,6169,0221,0203,0001,4E63,DF7E,FFFF,FFFF,FFFF
001A57	F09E 2262 2122 7E49 7DDF 424D 0202 0202 0101 AB62 BF5D 89FF C340	RAW F09E,2262,2122,7E49,7DDF,424D,0202,0202,0101,AB62,BF5D,89FF,C340
001A64	82A2 C3E3 41C2 FF6D FFFF FFFF FFFF FFFF FFFF 92FF	RAW 82A2,C3E3,41C2,FF6D,FFFF,FFFF,FFFF,FFFF,FFFF,92FF
001A6E	C341 A2A2 C2C2 C2A2 E3A2 4081 2020 A2A2 81C2 6181 FFEF	RAW C341,A2A2,C2C2,C2A2,E3A2,4081,2020,A2A2,81C2,6181,FFEF
001A79	FFFF FFFF 404D A2C2 A2C2 C3A2 EB41 FFFF FFFF FFFF	RAW FFFF,FFFF,404D,A2C2,A2C2,C3A2,EB41,FFFF,FFFF,FFFF
001A83	FFFF 412C A2A2 A2A2 A2C2 C3A2 B682 FFDF FFFF FFFF	RAW FFFF,412C,A2A2,A2A2,A2C2,C3A2,B682,FFDF,FFFF,FFFF
001A8D	618A C3C2 9220 FFFF 40B6 C2C2 C2C2 C2C2 82A2 DF1C FFFF	RAW 618A,C3C2,9220,FFFF,40B6,C2C2,C2C2,C2C2,82A2,DF1C,FFFF
001A98	FFFF DFFF 2034 A2C3 C681 FFFF FFFF FEFF A3FA 6101 7D69	RAW FFFF,DFFF,2034,A2C3,C681,FFFF,FFFF,FEFF,A3FA,6101,7D69
001AA3	DFDF FFFF 18FF 4204 0302 0202 0101 7542 DFBE FFFF FFFF FFFF	RAW DFDF,FFFF,18FF,4204,0302,0202,0101,7542,DFBE,FFFF,FFFF,FFFF
001AAF	097E 0242 4222 9E51 DABE 4325 0202 0102 0201 D363 DF9E A25D C3A2	RAW 097E,0242,4222,9E51,DABE,4325,0202,0102,0201,D363,DF9E,A25D,C3A2
001ABC	A2E3 C2A2 40A2 FF95 FFDF FFFF FFFF FFFF FFFF 69FF	RAW A2E3,C2A2,40A2,FF95,FFDF,FFFF,FFFF,FFFF,FFFF,69FF
001AC6	A261 A2E3 A2C3 C2A2 A2A2 07C6 28C6 E7E7 07C7 180B FFDF	RAW A261,A2E3,A2C3,C2A2,A2A2,07C6,28C6,E7E7,07C7,180B,FFDF
001AD1	DFFF 7DFF A2A2 C2A2 A2A2 E3A2 1420 FFFF FFFF DFFF	RAW DFFF,7DFF,A2A2,C2A2,A2A2,E3A2,1420,FFFF,FFFF,DFFF
001ADB	9EFF 8124 C2C2 A2A2 A2C2 C2A2 1881 FFFF DFFF 5DFF	RAW 9EFF,8124,C2C2,A2A2,A2C2,C2A2,1881,FFFF,DFFF,5DFF
001AE5	A2A2 C282 7940 FFDF 408E A2C2 C2C2 C2A2 4961 FFFF FFFF	RAW A2A2,C282,7940,FFDF,408E,A2C2,C2C2,C2A2,4961,FFFF,FFFF
001AF0	FFFF FFFF 40CA C2A2 5061 FFFF FFFF DEFF 6275 E342 DEBA	RAW FFFF,FFFF,40CA,C2A2,5061,FFFF,FFFF,DEFF,6275,E342,DEBA
001AFB	FFFF FFFF B3FF 2242 0202 0103 0100 FB82 FFFF FFFF FFFF DFFF	RAW FFFF,FFFF,B3FF,2242,0202,0103,0100,FB82,FFFF,FFFF,FFFF,DFFF
001B07	62BB 2201 C422 9D18 54BD 43A3 0202 0202 0222 9AA4 DFDF 4156 A2C2	RAW 62BB,2201,C422,9D18,54BD,43A3,0202,0202,0222,9AA4,DFDF,4156,A2C2
001B14	C382 C3C2 8182 FF3C FFFF FFFF FFFF DFFF FFFF A23C	RAW C382,C3C2,8182,FF3C,FFFF,FFFF,FFFF,DFFF,FFFF,A23C
001B1E	A2C2 C2C2 C382 C2C2 61C2 DF51 FFFF FFFF FFFF FFFF	RAW A2C2,C2C2,C382,C2C2,61C2,DF51,FFFF,FFFF,FFFF,FFFF
001B28	FFFF FFFF F7DE C361 C3C2 C2A2 82C2 DB82 FFFF FFFF	RAW FFFF,FFFF,F7DE,C361,C3C2,C2A2,82C2,DB82,FFFF,FFFF
001B32	FFFF 18FF C261 C2C2 A2C2 A2A2 A2C2 1440 BEFF FFFF 96FF	RAW FFFF,18FF,C261,C2C2,A2C2,A2A2,A2C2,1440,BEFF,FFFF,96FF
001B3D	A220 61E3 BEA6 BEFF 6104 C3C2 A2C2 C2E3 F300 FFFF DFFF	RAW A220,61E3,BEA6,BEFF,6104,C3C2,A2C2,C2E3,F300,FFFF,DFFF
001B48	FFFF FBFF A281 A2E3 5820 FFFF FFFF 7DDF A3CA 5841 DEBE	RAW FFFF,FBFF,A281,A2E3,5820,FFFF,FFFF,7DDF,A3CA,5841,DEBE
001B53	FFFF FFFF 29FF 0263 0302 2103 6120 7EAA FFFF FFFF FFFF BFFF	RAW FFFF,FFFF,29FF,0263,0302,2103,6120,7EAA,FFFF,FFFF,FFFF,BFFF
001B5F	83D4 0101 C863 BD5D EB9D 2262 0102 0101 4222 9D6A FFFF 414D A2E2	RAW 83D4,0101,C863,BD5D,EB9D,2262,0102,0101,4222,9D6A,FFFF,414D,A2E2
001B6C	E3C2 A2A2 4D40 DFDF BEFF FFFF FFFF FFFF DFFF 62FB	RAW E3C2,A2A2,4D40,DFDF,BEFF,FFFF,FFFF,FFFF,DFFF,62FB
001B76	C2A2 A2C2 A2C3 C2C2 81C2 9AE3 BEFF FFFF FFDF FFFF	RAW C2A2,A2C2,A2C3,C2C2,81C2,9AE3,BEFF,FFFF,FFDF,FFFF
001B80	FFFF FFFF 2CFF C241 C2A2 A2C2 20A2 FF4D FFDF FFFF DFFF	RAW FFFF,FFFF,2CFF,C241,C2A2,A2C2,20A2,FF4D,FFDF,FFFF,DFFF
001B8B	96FF C261 A2C2 A2C2 A2A2 A2C3 4561 FFFB FFDE 2CFF A241	RAW 96FF,C261,A2C2,A2C2,A2A2,A2C3,4561,FFFB,FFDE,2CFF,A241
001B96	40A2 FFEF 18FF E361 C2C2 C2C2 82C2 FC82 DFFF FFFF	RAW 40A2,FFEF,18FF,E361,C2C2,C2C2,82C2,FC82,DFFF,FFFF
001BA0	FFDF 44FB C382 81A2 BE44 FFFF FFFF 58BE C3E3 7E96	RAW FFDF,44FB,C382,81A2,BE44,FFFF,FFFF,58BE,C3E3,7E96
001BAA	FFDF FFFF FFFF 25FF 0262 0302 0102 8241 9E54 FFDF FFFF FFFF	RAW FFDF,FFFF,FFFF,25FF,0262,0302,0102,8241,9E54,FFDF,FFFF,FFFF
001BB6	9EFF 6272 0121 5243 DE9E 8A9D 2282 0202 0201 6222 BDB3 DFFE	RAW 9EFF,6272,0121,5243,DE9E,8A9D,2282,0202,0201,6222,BDB3,DFFE
001BC2	6149 C2A1 A1C2 E3C2 AE61 181B 3818 1838 1818 9638 FF1C 45BE	RAW 6149,C2A1,A1C2,E3C2,AE61,181B,3818,1838,1818,9638,FF1C,45BE
001BCE	E361 82C3 C3A2 A2C2 C3A2 2082 B6AE 5818 3879 1818 FFBE	RAW E361,82C3,C3A2,A2C2,C3A2,2082,B6AE,5818,3879,1818,FFBE
001BD9	FFFF 08FF C282 A2E3 A2C3 61C3 DBAE 9638 FFBB FFDF FBFF	RAW FFFF,08FF,C282,A2E3,A2C3,61C3,DBAE,9638,FFBB,FFDF,FBFF
001BE4	C220 C2A2 A2C2 C2C2 C3A2 82C3 0F40 9DD2 C3DF C281	RAW C220,C2A2,A2C2,C2C2,C3A2,82C3,0F40,9DD2,C3DF,C281
001BEE	20E3 FFF7 55FF C320 C2C2 C3A2 61A2 3845 1879 5918 1018	RAW 20E3,FFF7,55FF,C320,C2C2,C3A2,61A2,3845,1879,5918,1018
001BF9	6182 A2C3 20A2 FFCE FFFF DFFF 2C9E B2E2 DF7D FFFF	RAW 6182,A2C3,20A2,FFCE,FFFF,DFFF,2C9E,B2E2,DF7D,FFFF
001C03	FFFF FFFF 50FF 2282 0202 0102 C342 BEBA FFFF FFFF FFFF	RAW FFFF,FFFF,50FF,2282,0202,0102,C342,BEBA,FFFF,FFFF,FFFF
001C0E	DEFF C238 4261 B762 DEDF 919D 42A2 0202 2302 C423 7D18 FFFF	RAW DEFF,C238,4261,B762,DEDF,919D,42A2,0202,2302,C423,7D18,FFFF
001C1A	00D3 A2C2 C2C2 A2A2 A2C2 4120 2061 2021 4161 0020 DF1C 75FF	RAW 00D3,A2C2,C2C2,A2A2,A2C2,4120,2061,2021,4161,0020,DF1C,75FF
001C26	8200 C2C2 C3C2 C3A2 A2C2 C2E3 6141 6161 4140 6900 FFFF	RAW 8200,C2C2,C3C2,C3A2,A2C2,C2E3,6141,6161,4140,6900,FFFF
001C31	FFFF 34FF 8100 A2C2 C3A2 C282 41E3 0040 FF9A FFFF FFBE	RAW FFFF,34FF,8100,A2C2,C3A2,C282,41E3,0040,FF9A,FFFF,FFBE
001C3C	0051 C2C2 A2C2 A2C2 A282 A2E3 61E3 9D00 20BA C2C2 E381	RAW 0051,C2C2,A2C2,A2C2,A282,A2E3,61E3,9D00,20BA,C2C2,E381
001C47	DFBE 1CFF 6182 E3C2 C2A2 A2C3 61E3 6140 2020 8261 A2A2	RAW DFBE,1CFF,6182,E3C2,C2A2,A2C3,61E3,6140,2020,8261,A2A2
001C52	A2A2 41A2 DF96 FFFF 9EDF 04F8 7DEF DFBE FFDF FFFF	RAW A2A2,41A2,DF96,FFFF,9EDF,04F8,7DEF,DFBE,FFDF,FFFF
001C5C	DFFF 3BFF C34C 8342 6343 CBA4 DF7D FFFF FFFF FFFF FFDF	RAW DFFF,3BFF,C34C,8342,6343,CBA4,DF7D,FFFF,FFFF,FFFF,FFDF
001C67	D29D 82C3 5D45 FFFF 7DDF 83EF 6363 4383 29A4 BF5D FFDF	RAW D29D,82C3,5D45,FFFF,7DDF,83EF,6363,4383,29A4,BF5D,FFDF
001C72	6DFF 81A2 8161 8282 81C2 81A2 8261 8282 4182 D700 FFFF	RAW 6DFF,81A2,8161,8282,81C2,81A2,8261,8282,4182,D700,FFFF
001C7D	FFFF 6130 A261 8282 82A2 A282 8182 82A2 6182 4182 3C61	RAW FFFF,6130,A261,8282,82A2,A282,8182,82A2,6182,4182,3C61
001C88	FFFF FFFF DFFF E3CF 8161 81A2 81A2 6181 1400 FFFF FFDF	RAW FFFF,FFFF,DFFF,E3CF,8161,81A2,81A2,6181,1400,FFFF,FFDF
001C93	FFFF CBFF 8181 82A2 A282 8282 8181 4061 FF95 2010 C2C3	RAW FFFF,CBFF,8181,82A2,A282,8282,8181,4061,FF95,2010,C2C3
001C9E	0B61 FFFF FFFF E3F7 8181 82A2 A282 8182 A281 A281	RAW 0B61,FFFF,FFFF,E3F7,8181,82A2,A282,8182,A281,A281
001CA8	8182 8282 8282 6161 FF3C FFFF 3DDF EC66 9D5D FFFF FFFF	RAW 8182,8282,8282,6161,FF3C,FFFF,3DDF,EC66,9D5D,FFFF,FFFF
001CB3	FFFF FFFF BFFF DB9E 35D7 3555 BBF4 FFBE FFFF FFFF	RAW FFFF,FFFF,BFFF,DB9E,35D7,3555,BBF4,FFBE,FFFF,FFFF
001CBD	FFFF FFFF 9EDF 963C BF38 FFFF DFFF BBBE 75D7 5555 3934	RAW FFFF,FFFF,9EDF,963C,BF38,FFFF,DFFF,BBBE,75D7,5555,3934
001CC8	FFDF FFDF FFFF 185D 7675 9676 9696 9696 9696 9696	RAW FFDF,FFDF,FFFF,185D,7675,9676,9696,9696,9696,9696
001CD2	7555 FFFB FFFF FFFF FBFF 7596 7595 9596 9695 9696	RAW 7555,FFFB,FFFF,FFFF,FBFF,7596,7595,9596,9695,9696
001CDC	9696 9596 F775 FF5D FFFF FFFF FFDF 5DFF 9638 9675	RAW 9696,9596,F775,FF5D,FFFF,FFFF,FFDF,5DFF,9638,9675
001CE6	9675 7575 FFBA FFFF FFFF FFFF FFFF 75BA 9575 9696	RAW 9675,7575,FFBA,FFFF,FFFF,FFFF,FFFF,75BA,9575,9696
001CF0	9696 9695 1B95 DFFF 8165 C2C2 9620 DFFF FFFF BEFF	RAW 9696,9695,1B95,DFFF,8165,C2C2,9620,DFFF,FFFF,BEFF
001CFA	9659 9595 B695 9595 9595 9595 9695 9696 7596 3834	RAW 9659,9595,B695,9595,9595,9595,9695,9696,7596,3834
001D04	FFFF DFFF 6E9E 7EE8 FFDF FFFF FFFF FFFF FFFF FFFF	RAW FFFF,DFFF,6E9E,7EE8,FFDF,FFFF,FFFF,FFFF,FFFF,FFFF
001D0E	FFFF BEDE BEBE BFDF FFFF FFDF FFFF FFFF FFFF FFFF	RAW FFFF,BEDE,BEBE,BFDF,FFFF,FFDF,FFFF,FFFF,FFFF,FFFF
001D18	9EFF FFDF FFFF FFFF DFFF DEDE BEBE DFBE DFFF FFFF	RAW 9EFF,FFDF,FFFF,FFFF,DFFF,DEDE,BEBE,DFBE,DFFF,FFFF
001D22	FFDF DFFF FFFF FFDF FFFF FFFF FFFF DFFF FFFF FFFF	RAW FFDF,DFFF,FFFF,FFDF,FFFF,FFFF,FFFF,DFFF,FFFF,FFFF
001D2C	FFDF FFFF FFFF FFFF FFFF FFFF FFFF FFFF FFFF FFFF	RAW FFDF,FFFF,FFFF,FFFF,FFFF,FFFF,FFFF,FFFF,FFFF,FFFF
001D36	FFFF FFFF FFFF FFFF FFFF FFFF FFFF FFFF FFFF DFFF	RAW FFFF,FFFF,FFFF,FFFF,FFFF,FFFF,FFFF,FFFF,FFFF,DFFF
001D40	FFFF FFFF FFDF FFFF DFFF FFFF FFFF FFFF FFFF FFFF	RAW FFFF,FFFF,FFDF,FFFF,DFFF,FFFF,FFFF,FFFF,FFFF,FFFF
001D4A	FFFF 79FF C2A2 A2C2 3CA2 FFDF FFFF FFFF FFFF DFFF	RAW FFFF,79FF,C2A2,A2C2,3CA2,FFDF,FFFF,FFFF,FFFF,DFFF
001D54	FFFF FFFF FFFF FFFF FFFF FFFF FFFF FFFF FFFF DFFF	RAW FFFF,FFFF,FFFF,FFFF,FFFF,FFFF,FFFF,FFFF,FFFF,DFFF
001D5E	08B6 9E3C FFFF FFFF FFFF FFFF FFFF FFFF FFFF FFFF	RAW 08B6,9E3C,FFFF,FFFF,FFFF,FFFF,FFFF,FFFF,FFFF,FFFF
001D68	FEFF FFFF FFFF FFFF FFFF FFFF FFFF FFFF FFFF FFDF	RAW FEFF,FFFF,FFFF,FFFF,FFFF,FFFF,FFFF,FFFF,FFFF,FFDF
001D72	FFFF FFFF FFFF FFFF DFDF FFDF FFFF FFFF FFFF FFFF	RAW FFFF,FFFF,FFFF,FFFF,DFDF,FFDF,FFFF,FFFF,FFFF,FFFF
001D7C	FFFF FFFF FFFF FFFF FFFF FFFF FFFF FFFF FFFF FFFF	RAW FFFF,FFFF,FFFF,FFFF,FFFF,FFFF,FFFF,FFFF,FFFF,FFFF
001D86	FFFF FFFF FFFF FFFF FFFF FFFF FFFF FFFF FFFF FFFF	RAW FFFF,FFFF,FFFF,FFFF,FFFF,FFFF,FFFF,FFFF,FFFF,FFFF
001D90	FFFF FFFF FFFF FFFF FFFF FFFF FFFF FFDE FFFF FFFF	RAW FFFF,FFFF,FFFF,FFFF,FFFF,FFFF,FFFF,FFDE,FFFF,FFFF
001D9A	FFFF FFFF FFDF FFFF FFFF FFFF FFFF FFFF FFFF 71FF	RAW FFFF,FFFF,FFDF,FFFF,FFFF,FFFF,FFFF,FFFF,FFFF,71FF
001DA4	C240 61C2 FF89 FFFF FFFF FFFF FFFF FFFF FFFF FFFF	RAW C240,61C2,FF89,FFFF,FFFF,FFFF,FFFF,FFFF,FFFF,FFFF
001DAE	FFFF FFFF FFFF FFFF DFFF FFFF FFFF DBFF 5C8E FFBD	RAW FFFF,FFFF,FFFF,FFFF,DFFF,FFFF,FFFF,DBFF,5C8E,FFBD
001DB8	FFFF FFFF FFFF FFFF FFFF FFFF FFFF FFFF FFFF FFFF	RAW FFFF,FFFF,FFFF,FFFF,FFFF,FFFF,FFFF,FFFF,FFFF,FFFF
001DC2	FFFF FFFF FFFF FFFF FFFF FFFF FFDF FFDF FFFF FFFF	RAW FFFF,FFFF,FFFF,FFFF,FFFF,FFFF,FFDF,FFDF,FFFF,FFFF
001DCC	FFFF FFFF FFFF FFFF FFFF FFDF FFFF FFFF FFFF FFFF	RAW FFFF,FFFF,FFFF,FFFF,FFFF,FFDF,FFFF,FFFF,FFFF,FFFF
001DD6	FFFF FFFF FFFF FFFF FFFF FFFF FFFF FFFF FFFF FFFF	RAW FFFF,FFFF,FFFF,FFFF,FFFF,FFFF,FFFF,FFFF,FFFF,FFFF
001DE0	FFFF FFFF FFFF FFFF FFFF FFFF FFFF FFFF FFFF FFFF	RAW FFFF,FFFF,FFFF,FFFF,FFFF,FFFF,FFFF,FFFF,FFFF,FFFF
001DEA	FFFF FFFF FFFF FFFF FFFF FFFF FFFF FFDE FFFF FFFF	RAW FFFF,FFFF,FFFF,FFFF,FFFF,FFFF,FFFF,FFDE,FFFF,FFFF
001DF4	FFFF FFFF FFFF FFFF FFFF DFFF DFFF 48FF C361 20C3 FF34	RAW FFFF,FFFF,FFFF,FFFF,FFFF,DFFF,DFFF,48FF,C361,20C3,FF34
001DFF	FFFF FFFF FFFF FFFF FFFF FFFF FFFF FFFF FFFF FFFF	RAW FFFF,FFFF,FFFF,FFFF,FFFF,FFFF,FFFF,FFFF,FFFF,FFFF
001E09	FFFF FFFF FFFF FFFF 969E DE5D DEFF FFFF FFFF FFFF	RAW FFFF,FFFF,FFFF,FFFF,969E,DE5D,DEFF,FFFF,FFFF,FFFF
001E13	FFFF FFFF FFFF FFFF FFFF FFFF FFFF FFFF FFFF FFFF	RAW FFFF,FFFF,FFFF,FFFF,FFFF,FFFF,FFFF,FFFF,FFFF,FFFF
001E1D	FFFF FFFF FFFF FFFF FFFF FFFF FFFF FFFF FFFF FFFF	RAW FFFF,FFFF,FFFF,FFFF,FFFF,FFFF,FFFF,FFFF,FFFF,FFFF
001E27	FFFF FFFF FFFF FFFF FFFF FFFF FFFF FFFF DEFF FFFF	RAW FFFF,FFFF,FFFF,FFFF,FFFF,FFFF,FFFF,FFFF,DEFF,FFFF
001E31	FFFF FFFF FFFF FFFF FFFF FFFF FFFF FFFF FFFF FFFF	RAW FFFF,FFFF,FFFF,FFFF,FFFF,FFFF,FFFF,FFFF,FFFF,FFFF
001E3B	FFFF FFFF FFFF FFFF FFFF FFFF FFFF FFFF FFFF FFFF	RAW FFFF,FFFF,FFFF,FFFF,FFFF,FFFF,FFFF,FFFF,FFFF,FFFF
001E45	FFFF FFFF FFFF FFFF FFFF FFFF FFFF FFDF FFFF FFFF	RAW FFFF,FFFF,FFFF,FFFF,FFFF,FFFF,FFFF,FFDF,FFFF,FFFF
001E4F	FFFF FFFF FFFF FFFF 61FB A2C2 61C3 FFFB FFDF FFFF	RAW FFFF,FFFF,FFFF,FFFF,61FB,A2C2,61C3,FFFB,FFDF,FFFF
001E59	FFFF FFFF FFFF FFFF FFFF FFFF FFFF FFFF FFFF DFFF	RAW FFFF,FFFF,FFFF,FFFF,FFFF,FFFF,FFFF,FFFF,FFFF,DFFF
001E63	FFDF DFFF 9DFB FFDE FFDF FFFF FFFF FFFF FFFF FFFF	RAW FFDF,DFFF,9DFB,FFDE,FFDF,FFFF,FFFF,FFFF,FFFF,FFFF
001E6D	FFFF FFFF FFFF FFFF FFFF FFFF FFFF FFFF FFFF FFFF	RAW FFFF,FFFF,FFFF,FFFF,FFFF,FFFF,FFFF,FFFF,FFFF,FFFF
001E77	FFFF DFFF FFFF FFFF FFFF FFFF FFFF FFFF FFFF FFFF	RAW FFFF,DFFF,FFFF,FFFF,FFFF,FFFF,FFFF,FFFF,FFFF,FFFF
001E81	FFFF FFFF FFFF FFFF FFFF FFFF FFFF FFFF FFFF FFFF	RAW FFFF,FFFF,FFFF,FFFF,FFFF,FFFF,FFFF,FFFF,FFFF,FFFF
001E8B	FFFF FFFF FFFF FFFF FFFF FFFF FFFF FFFF FFFF FFFF	RAW FFFF,FFFF,FFFF,FFFF,FFFF,FFFF,FFFF,FFFF,FFFF,FFFF
001E95	FFFF FFFF FFFF DEFF FFFF FFFF FFFF FFFF FFFF FFFF	RAW FFFF,FFFF,FFFF,DEFF,FFFF,FFFF,FFFF,FFFF,FFFF,FFFF
001E9F	FFFF FFFF DFFF FFFF FFFF FFFF FFFF FFFF FFFF FFFF	RAW FFFF,FFFF,DFFF,FFFF,FFFF,FFFF,FFFF,FFFF,FFFF,FFFF
001EA9	FFFF FFDE 40D3 C3E3 C641 FFDE FFFF FFFF FFFF FFFF	RAW FFFF,FFDE,40D3,C3E3,C641,FFDE,FFFF,FFFF,FFFF,FFFF
001EB3	FFFF FFFF FFFF FFFF FFFF FFFF FFFF FFFF FFFF DFDF	RAW FFFF,FFFF,FFFF,FFFF,FFFF,FFFF,FFFF,FFFF,FFFF,DFDF
001EBD	FFBE FFFF FFFF FFDF FFFF FFFE FFFF FFFF FFFF FFFF	RAW FFBE,FFFF,FFFF,FFDF,FFFF,FFFE,FFFF,FFFF,FFFF,FFFF
001EC7	FFFF FFFF FFFF FFFF FFFF FFFF FFFF FFFF FFDF FFFF	RAW FFFF,FFFF,FFFF,FFFF,FFFF,FFFF,FFFF,FFFF,FFDF,FFFF
001ED1	FFFF FFFE FFFF FFFF FFFF FFFF FFFF FFFF FFDF FFFF	RAW FFFF,FFFE,FFFF,FFFF,FFFF,FFFF,FFFF,FFFF,FFDF,FFFF
001EDB	FFFF FFFF FFDF FFFF FFFF FFFF FFFF FFFF FFFF FFFF	RAW FFFF,FFFF,FFDF,FFFF,FFFF,FFFF,FFFF,FFFF,FFFF,FFFF
001EE5	FFFF FFFF FFFF FFFF FFFF FFFF FFFF FFFF FFFF FFFF	RAW FFFF,FFFF,FFFF,FFFF,FFFF,FFFF,FFFF,FFFF,FFFF,FFFF
001EEF	FFFF FFFF FFFF FFFF FFFF FFFF FFFF FFFF FFFF FFFF	RAW FFFF,FFFF,FFFF,FFFF,FFFF,FFFF,FFFF,FFFF,FFFF,FFFF
001EF9	FFFF FFDF FFFF 31DF 8AE4 CAAA CBEB 69AA 4848 4989 C203	RAW FFFF,FFDF,FFFF,31DF,8AE4,CAAA,CBEB,69AA,4848,4989,C203
001F04	A2C2 F300 FFFF FFFF FFFF DFFF FFFF FFFF FFFF FFFF	RAW A2C2,F300,FFFF,FFFF,FFFF,DFFF,FFFF,FFFF,FFFF,FFFF
001F0E	FFFF FFFF FFFF FFFF FFFF FFFF FFFF DFFF FFFF DFFF	RAW FFFF,FFFF,FFFF,FFFF,FFFF,FFFF,FFFF,DFFF,FFFF,DFFF
001F18	FFFF FFDF FFFE FFFF FFFF FFFF FFFF FFFF FFFF FFFF	RAW FFFF,FFDF,FFFE,FFFF,FFFF,FFFF,FFFF,FFFF,FFFF,FFFF
001F22	FFFF FFFF FFFF FFFF FFFF FFFF FFFF FFFF FFFF FFFF	RAW FFFF,FFFF,FFFF,FFFF,FFFF,FFFF,FFFF,FFFF,FFFF,FFFF
001F2C	FFFF FFFF FFFF FFFF FFFF FFFF FFDF FFFF FFFF FFFF	RAW FFFF,FFFF,FFFF,FFFF,FFFF,FFFF,FFDF,FFFF,FFFF,FFFF
001F36	FFFF FFFF FFFF FFFF FFFF FFFF FFFF FFFF FFFF FFFF	RAW FFFF,FFFF,FFFF,FFFF,FFFF,FFFF,FFFF,FFFF,FFFF,FFFF
001F40	FFFF FFFF FFFF FFFF FFFF FFFF FFFF FFFF FFFF FFFF	RAW FFFF,FFFF,FFFF,FFFF,FFFF,FFFF,FFFF,FFFF,FFFF,FFFF
001F4A	FFFF FFFF FFFF FFFF FFFF FFFF FFFF FFFF FFDE FFFF	RAW FFFF,FFFF,FFFF,FFFF,FFFF,FFFF,FFFF,FFFF,FFDE,FFFF
001F54	14FF 6100 2041 2020 A261 C2E3 C2C2 C3A2 00A2 FFEB FFFF	RAW 14FF,6100,2041,2020,A261,C2E3,C2C2,C3A2,00A2,FFEB,FFFF
001F5F	FFFF FFFF FFFF FFFF FFFF FFFF FFFF FFFF FFFF FFFF	RAW FFFF,FFFF,FFFF,FFFF,FFFF,FFFF,FFFF,FFFF,FFFF,FFFF
001F69	FFFF FFFF FFFF FFFF FFFF FFFF FFFF FFFF FFFF FFFF	RAW FFFF,FFFF,FFFF,FFFF,FFFF,FFFF,FFFF,FFFF,FFFF,FFFF
001F73	FFFF FFFF FFFF FFFF FFFF FFFF FFFF FFFF FFFF FFFF	RAW FFFF,FFFF,FFFF,FFFF,FFFF,FFFF,FFFF,FFFF,FFFF,FFFF
001F7D	FFDE FFFF FFFF FFFF FFFF FFFF FFFF FFFF FFFF FFFF	RAW FFDE,FFFF,FFFF,FFFF,FFFF,FFFF,FFFF,FFFF,FFFF,FFFF
001F87	FFFF FFFF FFFF FFFF FFFF FFFF FFFF FFFF FFFF FFFF	RAW FFFF,FFFF,FFFF,FFFF,FFFF,FFFF,FFFF,FFFF,FFFF,FFFF
001F91	FFFF FFFF FFFF FFFF FFFF FFFF FFFF FFFF FFFF FFFF	RAW FFFF,FFFF,FFFF,FFFF,FFFF,FFFF,FFFF,FFFF,FFFF,FFFF
001F9B	FFFF FFFF FFDE FFFF FFFF FFFF FFFF FFFF FFFF FFFF	RAW FFFF,FFFF,FFDE,FFFF,FFFF,FFFF,FFFF,FFFF,FFFF,FFFF
001FA5	FFFF FFFF FFFF FFFF FFFF FFFF FFFF FFFF 002C 8281	RAW FFFF,FFFF,FFFF,FFFF,FFFF,FFFF,FFFF,FFFF,002C,8281
001FAF	6181 8182 8181 8181 6182 4D81 FFFF FFFF FFFF FFFF	RAW 6181,8182,8181,8181,6182,4D81,FFFF,FFFF,FFFF,FFFF
001FB9	FFFF FFFF FFFF FFFF FFFF FFFF FFFF FFFF FFFF FFFF	RAW FFFF,FFFF,FFFF,FFFF,FFFF,FFFF,FFFF,FFFF,FFFF,FFFF
001FC3	FFFF FFFF FFFF FFFF FFFF FFFF FFFF FFFF FFFF FFFF	RAW FFFF,FFFF,FFFF,FFFF,FFFF,FFFF,FFFF,FFFF,FFFF,FFFF
001FCD	FFFF FFFF FFFF FFFF FFFF FFFF FFFF DEFF FFFF FFFF	RAW FFFF,FFFF,FFFF,FFFF,FFFF,FFFF,FFFF,DEFF,FFFF,FFFF
001FD7	FFFF FFFF FFFF FFFF FFFF FFFF FFFF FFFF FFFF FFFF	RAW FFFF,FFFF,FFFF,FFFF,FFFF,FFFF,FFFF,FFFF,FFFF,FFFF
001FE1	FFFF FFFF FFFF FFFF FFFF FFFF FFFF FFFF FFFF FFFF	RAW FFFF,FFFF,FFFF,FFFF,FFFF,FFFF,FFFF,FFFF,FFFF,FFFF
001FEB	FFFF FFFF FFFF FFFF FFFF FFFF FFFF FFFF FFFF DEFF	RAW FFFF,FFFF,FFFF,FFFF,FFFF,FFFF,FFFF,FFFF,FFFF,DEFF
001FF5	FFFF FFFF FFFF FFFF FFFF FFFF FFFF FFFF FFFF FFFF	RAW FFFF,FFFF,FFFF,FFFF,FFFF,FFFF,FFFF,FFFF,FFFF,FFFF
001FFF	FFFF FFFF FFFF FFFF FFFF FFFF EFFF 0424 4565 6565 4565	RAW FFFF,FFFF,FFFF,FFFF,FFFF,FFFF,EFFF,0424,4565,6565,4565
00200A	A645 0F69 FFDA FFFF FFFF FFFF FFFF FFFF FFFF FFFF	RAW A645,0F69,FFDA,FFFF,FFFF,FFFF,FFFF,FFFF,FFFF,FFFF
002014	FFFF FFFF FFFF FFFF FFFF FFFF FFFF FFFF FFFF FFFF	RAW FFFF,FFFF,FFFF,FFFF,FFFF,FFFF,FFFF,FFFF,FFFF,FFFF
00201E	FFFF FFFF FFFF FFFF FFFF FFFF FFFF 00FF	RAW FFFF,FFFF,FFFF,FFFF,FFFF,FFFF,FFFF,00FF


		TABLEIMAGE1_H
002026	2F6A	MOV SYSWORDTEMPA,SYSSTRINGA
002027	2F7B	MOV SYSWORDTEMPA_H,SYSSTRINGA_H
002028	E6C3	LDI SYSWORDTEMPB,99
002029	E2D2	LDI SYSWORDTEMPB_H,34
00202A	940E 0E88	CALL SYSCOMPLESSTHAN16
00202C	FE00	SBRS SYSBYTETEMPX,0
00202D	9508	RET
00202E	E6E8	LDI SYSREADA, LOW(TABLETABLEIMAGE1_H<<1)
00202F	E4F0	LDI SYSREADA_H, HIGH(TABLETABLEIMAGE1_H<<1)
002030	0FEA	ADD SYSREADA, SYSSTRINGA
002031	1FFB	ADC SYSREADA_H, SYSSTRINGA_H
002032	95C8	LPM
002033	9508	RET
		TABLETABLEIMAGE1_H
002034	0022 FF00 FFFF FFFF FFFF FFFF FFFF FFFF FFFF FFFF FFFF	RAW 0022,FF00,FFFF,FFFF,FFFF,FFFF,FFFF,FFFF,FFFF,FFFF,FFFF
00203F	FFFF FFFF FFFF FFFF FFFF FFFF FFFF FFFF FFFF FFFF	RAW FFFF,FFFF,FFFF,FFFF,FFFF,FFFF,FFFF,FFFF,FFFF,FFFF
002049	FFFF FFFF FFFF FFFF FFFF FFFF FFFF FFFF FFFF FFFF	RAW FFFF,FFFF,FFFF,FFFF,FFFF,FFFF,FFFF,FFFF,FFFF,FFFF
002053	FFFF FFFF FFF7 FFFF FFFF FFFF FFFF FFFF FFFF FFFF	RAW FFFF,FFFF,FFF7,FFFF,FFFF,FFFF,FFFF,FFFF,FFFF,FFFF
00205D	FFFF FFFF FEFF FEFE FEFE FDFD FDFD FCFC FBFC FBFC	RAW FFFF,FFFF,FEFF,FEFE,FEFE,FDFD,FDFD,FCFC,FBFC,FBFC
002067	FBFB FBFA FAFA FAFA F9F9 F9F9 F0F9 F0F0 F0F0 F9F9	RAW FBFB,FBFA,FAFA,FAFA,F9F9,F9F9,F0F9,F0F0,F0F0,F9F9
002071	F9F9 FAF9 FAFA FAFA FBFB FCFB FCFC FDFD FEFD FEFE	RAW F9F9,FAF9,FAFA,FAFA,FBFB,FCFB,FCFC,FDFD,FEFD,FEFE
00207B	FFFF FFFF FFFF FFFF FFFF FFFF FFFF FFFF FFFF FFFF	RAW FFFF,FFFF,FFFF,FFFF,FFFF,FFFF,FFFF,FFFF,FFFF,FFFF
002085	FFFF FFFF FFFF FFFF FFFF FFFF FFFF FFFF FFFF FFFF	RAW FFFF,FFFF,FFFF,FFFF,FFFF,FFFF,FFFF,FFFF,FFFF,FFFF
00208F	FFFF FFFF FFFF FFFF FFFF FFFF FFFF FFFF FFFF FFFF	RAW FFFF,FFFF,FFFF,FFFF,FFFF,FFFF,FFFF,FFFF,FFFF,FFFF
002099	FFFF FFFF FFFF FFFF FFFF FFFF FFFF FFFF FFFF FFFF	RAW FFFF,FFFF,FFFF,FFFF,FFFF,FFFF,FFFF,FFFF,FFFF,FFFF
0020A3	FFFF FFFF FFFF FFFF FFFF F7FF FFFF FFFF FFFF FFFF	RAW FFFF,FFFF,FFFF,FFFF,FFFF,F7FF,FFFF,FFFF,FFFF,FFFF
0020AD	FFFF FFFF FFFF FFFF FFFF EEFF DDE6 C4CD ABBC 9AAA	RAW FFFF,FFFF,FFFF,FFFF,FFFF,EEFF,DDE6,C4CD,ABBC,9AAA
0020B7	8989 8981 9189 9891 A098 A0A0 B0A8 B0B0 B8B0 B8C0	RAW 8989,8981,9189,9891,A098,A0A0,B0A8,B0B0,B8B0,B8C0
0020C1	C0C0 D0C8 D0D0 D8D8 D8D8 D8D8 D8D8 D8D8 D8D8 D0D0	RAW C0C0,D0C8,D0D0,D8D8,D8D8,D8D8,D8D8,D8D8,D8D8,D0D0
0020CB	D0C8 C0D0 C0C8 C0C0 B8C0 B8B8 A8A8 B9B1 CAC2 ECDB	RAW D0C8,C0D0,C0C8,C0C0,B8C0,B8B8,A8A8,B9B1,CAC2,ECDB
0020D5	FDF4 FEFE FFFF FFFF FFFF FFFF FFFF FFFF FFFF FFFF	RAW FDF4,FEFE,FFFF,FFFF,FFFF,FFFF,FFFF,FFFF,FFFF,FFFF
0020DF	FFFF FFFF FFFF FFFF FFFF FFFF FFFF FFFF FFFF FFFF	RAW FFFF,FFFF,FFFF,FFFF,FFFF,FFFF,FFFF,FFFF,FFFF,FFFF
0020E9	FFFF FFFF FFFF FFFF FFFF FFFF FFFF FFFF FFFF FFFF	RAW FFFF,FFFF,FFFF,FFFF,FFFF,FFFF,FFFF,FFFF,FFFF,FFFF
0020F3	FFFF FFFF FFFF FFFF FFFF FFFF FFFF FFFF FFFF FFFF	RAW FFFF,FFFF,FFFF,FFFF,FFFF,FFFF,FFFF,FFFF,FFFF,FFFF
0020FD	FFFF FFF7 FFFF FFFF FFFF FFFF FFFF FFFF FFFF FFFF	RAW FFFF,FFF7,FFFF,FFFF,FFFF,FFFF,FFFF,FFFF,FFFF,FFFF
002107	FFFF FFFF FFFF F7FF F6F6 EEEE E5E5 E5E5 DDE5 DCDC	RAW FFFF,FFFF,FFFF,F7FF,F6F6,EEEE,E5E5,E5E5,DDE5,DCDC
002111	D3DC CBD3 C2CA A9B2 A1A1 A8A0 B0A8 B8B8 C8C0 D0C8	RAW D3DC,CBD3,C2CA,A9B2,A1A1,A8A0,B0A8,B8B8,C8C0,D0C8
00211B	D8D8 E0D8 E0E0 E0E0 E0E0 E0E0 D8D8 E0E0 D8D8 E0D8	RAW D8D8,E0D8,E0E0,E0E0,E0E0,E0E0,D8D8,E0E0,D8D8,E0D8
002125	D8D8 D8D8 D0D8 D8D0 D0D0 C8D0 C8C8 C0C0 B8C0 C0B8	RAW D8D8,D8D8,D0D8,D8D0,D0D0,C8D0,C8C8,C0C0,B8C0,C0B8
00212F	E2D1 FCFB FEFD FFFF FFFF FFFF FFFF FFFF FFFF FFFF	RAW E2D1,FCFB,FEFD,FFFF,FFFF,FFFF,FFFF,FFFF,FFFF,FFFF
002139	FFFF FFFF FFFF FFFF FFFF FFFF FFFF FFFF FFFF FFFF	RAW FFFF,FFFF,FFFF,FFFF,FFFF,FFFF,FFFF,FFFF,FFFF,FFFF
002143	FFFF FFFF FFFF FFFF FFFF FFFF FFFF FFFF FFFF FFFF	RAW FFFF,FFFF,FFFF,FFFF,FFFF,FFFF,FFFF,FFFF,FFFF,FFFF
00214D	FFFF FFFF FFFF FFFF FFFF FFFF FFFF FFFF FFFF FFFF	RAW FFFF,FFFF,FFFF,FFFF,FFFF,FFFF,FFFF,FFFF,FFFF,FFFF
002157	F7FF FFFF FFFF FFFF FFFF FFFF FFFF FFFF FFFF FFFF	RAW F7FF,FFFF,FFFF,FFFF,FFFF,FFFF,FFFF,FFFF,FFFF,FFFF
002161	FFFF FFFF FFFF FFFF FFFF FFFF FFFF FFFF FFFF FFFF	RAW FFFF,FFFF,FFFF,FFFF,FFFF,FFFF,FFFF,FFFF,FFFF,FFFF
00216B	FFFF FFFF FEFF FDFE FDFD FCFC EAF3 D1E2 B8C1 C0B8	RAW FFFF,FFFF,FEFF,FDFE,FDFD,FCFC,EAF3,D1E2,B8C1,C0B8
002175	C0C0 C8C0 C8C8 D0C8 D8D8 D8D8 E0E0 E8E0 E0E0 E0E8	RAW C0C0,C8C0,C8C8,D0C8,D8D8,D8D8,E0E0,E8E0,E0E0,E0E8
00217F	E8E0 E0E8 E0E0 E0E0 E0E0 E0E0 E0E0 D8D8 D0D8 B8C8	RAW E8E0,E0E8,E0E0,E0E0,E0E0,E0E0,E0E0,D8D8,D0D8,B8C8
002189	A8B0 DBC1 FEFC FFFF FFFF FFFF FFFF FFFF FFFF FFFF	RAW A8B0,DBC1,FEFC,FFFF,FFFF,FFFF,FFFF,FFFF,FFFF,FFFF
002193	FFFF FFFF FFFF FFFF FFFF FFFF FFFF FFFF FFFF FFFF	RAW FFFF,FFFF,FFFF,FFFF,FFFF,FFFF,FFFF,FFFF,FFFF,FFFF
00219D	FFFF FFFF FFFF FFFF FFFF FFFF FFFF FFFF FFFF FFFF	RAW FFFF,FFFF,FFFF,FFFF,FFFF,FFFF,FFFF,FFFF,FFFF,FFFF
0021A7	FFFF FFFF FFFF FFFF FFFF FFFF FFFF FFFF FFFF FFF7	RAW FFFF,FFFF,FFFF,FFFF,FFFF,FFFF,FFFF,FFFF,FFFF,FFF7
0021B1	FFFF FFFF FFFF FFFF FFFF FFFF FFFF FFFF FFFF FFFF	RAW FFFF,FFFF,FFFF,FFFF,FFFF,FFFF,FFFF,FFFF,FFFF,FFFF
0021BB	FFFF FFFF FFFF FFFF FFFF FFFF FFFF FFFF FFFF FFFF	RAW FFFF,FFFF,FFFF,FFFF,FFFF,FFFF,FFFF,FFFF,FFFF,FFFF
0021C5	FFFF FFFF FFFF FFFF FFFF FFFF FEFF FDFE ECF5 CBE3	RAW FFFF,FFFF,FFFF,FFFF,FFFF,FFFF,FEFF,FDFE,ECF5,CBE3
0021CF	B1BA B0A8 C8C0 D8C8 E0E0 E0E0 E0E0 E0E0 E8E0 E0E0	RAW B1BA,B0A8,C8C0,D8C8,E0E0,E0E0,E0E0,E0E0,E8E0,E0E0
0021D9	E0E8 E0E0 E0E0 E8E8 E8E8 E0E0 D8D8 D0D8 D0D0 C8C8	RAW E0E8,E0E0,E0E0,E8E8,E8E8,E0E0,D8D8,D0D8,D0D0,C8C8
0021E3	B8C0 E2B8 FEFC FFFF FFFF FFFF FFFF FFFF FFFF FFFF	RAW B8C0,E2B8,FEFC,FFFF,FFFF,FFFF,FFFF,FFFF,FFFF,FFFF
0021ED	FFFF FFFF FFFF FFFF FFFF FFFF FFFF FFFF FFFF FFFF	RAW FFFF,FFFF,FFFF,FFFF,FFFF,FFFF,FFFF,FFFF,FFFF,FFFF
0021F7	FFFF FFFF FFFF FFFF FFFF FFFF FFFF FFFF FFFF FFFF	RAW FFFF,FFFF,FFFF,FFFF,FFFF,FFFF,FFFF,FFFF,FFFF,FFFF
002201	FFFF FFFF FFFF FFFF FFFF FFFF FFF7 FFFF FFFF FFFF	RAW FFFF,FFFF,FFFF,FFFF,FFFF,FFFF,FFF7,FFFF,FFFF,FFFF
00220B	FFFF FFFF FFFF FFFF FFFF FFFF FFFF FFFF FFFF FFFF	RAW FFFF,FFFF,FFFF,FFFF,FFFF,FFFF,FFFF,FFFF,FFFF,FFFF
002215	FFFF FFFF FFFF FFFF FFFF FFFF FFFF FFFF FFFF FFFF	RAW FFFF,FFFF,FFFF,FFFF,FFFF,FFFF,FFFF,FFFF,FFFF,FFFF
00221F	FFFF FFFF FFFF FFFF FFFF FFFF FFFF FFFF FFFF FDFE	RAW FFFF,FFFF,FFFF,FFFF,FFFF,FFFF,FFFF,FFFF,FFFF,FDFE
002229	FCFD D1EA B8B8 C0C0 D0C0 D0C8 D8D8 E0D8 E0E0 E0E0	RAW FCFD,D1EA,B8B8,C0C0,D0C0,D0C8,D8D8,E0D8,E0E0,E0E0
002233	E8E8 E8E8 E8E8 E0E0 E0E0 E0E0 E0E0 E8E0 E0E8 C8D8	RAW E8E8,E8E8,E8E8,E0E0,E0E0,E0E0,E0E0,E8E0,E0E8,C8D8
00223D	A8C0 F4BA FFFF FFFF FFFF FFFF FFFF FFFF FFFF FFFF	RAW A8C0,F4BA,FFFF,FFFF,FFFF,FFFF,FFFF,FFFF,FFFF,FFFF
002247	FFFF FFFF FFFF FFFF FFFF FFFF FFFF FFFF FFFF FFFF	RAW FFFF,FFFF,FFFF,FFFF,FFFF,FFFF,FFFF,FFFF,FFFF,FFFF
002251	FFFF FFFF FFFF FFFF FFFF FFFF FFFF FFFF FFFF FFFF	RAW FFFF,FFFF,FFFF,FFFF,FFFF,FFFF,FFFF,FFFF,FFFF,FFFF
00225B	FFFF FFFF FFFF FFFF FFFF FFFF FFFF FFFF FFFF FFFF	RAW FFFF,FFFF,FFFF,FFFF,FFFF,FFFF,FFFF,FFFF,FFFF,FFFF
002265	FFF7 FFFF FFFF FFFF FFFF FFFF FFFF FFFF FFFF FFFF	RAW FFF7,FFFF,FFFF,FFFF,FFFF,FFFF,FFFF,FFFF,FFFF,FFFF
00226F	FFFF FFFF FFFF FFFF FFFF FFFF FFFF FFFF FFFF FFFF	RAW FFFF,FFFF,FFFF,FFFF,FFFF,FFFF,FFFF,FFFF,FFFF,FFFF
002279	FFFF FFFF FFFF FFFF FFFF FFFF FFFF FFFF FFFF FFFF	RAW FFFF,FFFF,FFFF,FFFF,FFFF,FFFF,FFFF,FFFF,FFFF,FFFF
002283	FEFE ECFD BAD3 B0B1 C0B8 D8D0 E0E0 E0E8 E0E0 E0E0	RAW FEFE,ECFD,BAD3,B0B1,C0B8,D8D0,E0E0,E0E8,E0E0,E0E0
00228D	E8E0 E0E8 E0E0 E0E0 E0E0 E0E0 E0E0 D8E0 D0D8 B8C8	RAW E8E0,E0E8,E0E0,E0E0,E0E0,E0E0,E0E0,D8E0,D0D8,B8C8
002297	EBB8 FFFE FFFF FFFF FFFF FFFF FFFF FFFF FFFF FFFF	RAW EBB8,FFFE,FFFF,FFFF,FFFF,FFFF,FFFF,FFFF,FFFF,FFFF
0022A1	FFFF FFFF FFFF FFFF FFFF FFFF FFFF FFFF FFFF FFFF	RAW FFFF,FFFF,FFFF,FFFF,FFFF,FFFF,FFFF,FFFF,FFFF,FFFF
0022AB	FFFF FFFF FFFF FFFF FFFF FFFF FFFF FFFF FFFF FFFF	RAW FFFF,FFFF,FFFF,FFFF,FFFF,FFFF,FFFF,FFFF,FFFF,FFFF
0022B5	FFFF FFFF FFFF FFFF FFFF FFFF FFFF FFFF FFF7 FFFF	RAW FFFF,FFFF,FFFF,FFFF,FFFF,FFFF,FFFF,FFFF,FFF7,FFFF
0022BF	FFFF FFFF FFFF FFFF FFFF FFFF FFFF FFFF FFFF FFFF	RAW FFFF,FFFF,FFFF,FFFF,FFFF,FFFF,FFFF,FFFF,FFFF,FFFF
0022C9	FFFF FFFF FFFF FFFF FFFF FFFF FFFF FFFF FFFF FFFF	RAW FFFF,FFFF,FFFF,FFFF,FFFF,FFFF,FFFF,FFFF,FFFF,FFFF
0022D3	FFFF FFFF FFFF FFFF FFFF FFFF FFFF FFFF FFFF FFFF	RAW FFFF,FFFF,FFFF,FFFF,FFFF,FFFF,FFFF,FFFF,FFFF,FFFF
0022DD	FFFF FEFE FBFC C0DA C0C0 C8C8 D8D0 D8D8 E8E0 E0E8	RAW FFFF,FEFE,FBFC,C0DA,C0C0,C8C8,D8D0,D8D8,E8E0,E0E8
0022E7	E0E0 E0E0 E0E8 E0E0 E8E0 E0E0 E8E0 E0E0 C8D8 CAB0	RAW E0E0,E0E0,E0E8,E0E0,E8E0,E0E0,E8E0,E0E0,C8D8,CAB0
0022F1	FFFD FFFF FFFF FFFF FFFF FFFF FFFF FFFF FFFF FFFF	RAW FFFD,FFFF,FFFF,FFFF,FFFF,FFFF,FFFF,FFFF,FFFF,FFFF
0022FB	FFFF FFFF FFFF FFFF FFFF FFFF FFFF FFFF FFFF FFFF	RAW FFFF,FFFF,FFFF,FFFF,FFFF,FFFF,FFFF,FFFF,FFFF,FFFF
002305	FFFF FFFF FFFF FFFF FFFF FFFF FFFF FFFF FFFF FFFF	RAW FFFF,FFFF,FFFF,FFFF,FFFF,FFFF,FFFF,FFFF,FFFF,FFFF
00230F	FFFF FFFF FFFF FFFF FFFF FFFF FFF7 FFFF FFFF FFFF	RAW FFFF,FFFF,FFFF,FFFF,FFFF,FFFF,FFF7,FFFF,FFFF,FFFF
002319	FFFF FFFF FFFF FFFF FFFF FFFF FFFF FFFF FFFF FFFF	RAW FFFF,FFFF,FFFF,FFFF,FFFF,FFFF,FFFF,FFFF,FFFF,FFFF
002323	FFFF FFFF FFFF FFFF FFFF FFFF FFFF FFFF FFFF FFFF	RAW FFFF,FFFF,FFFF,FFFF,FFFF,FFFF,FFFF,FFFF,FFFF,FFFF
00232D	FFFF FFFF FFFF FFFF FFFF FFFF FFFF FFFF FFFF FFFF	RAW FFFF,FFFF,FFFF,FFFF,FFFF,FFFF,FFFF,FFFF,FFFF,FFFF
002337	FFFF FFFF F4FE B1DB C0B0 D8D0 D8E0 E0E0 E0E0 E0E0	RAW FFFF,FFFF,F4FE,B1DB,C0B0,D8D0,D8E0,E0E0,E0E0,E0E0
002341	E0E0 E0E0 E8E0 E0E0 E8E0 E0E8 D8D8 C8D0 DAB8 FFFE	RAW E0E0,E0E0,E8E0,E0E0,E8E0,E0E8,D8D8,C8D0,DAB8,FFFE
00234B	FFFF FFFF FFFF FFFF FFFF FFFF FFFF FFFF FFFF FFFF	RAW FFFF,FFFF,FFFF,FFFF,FFFF,FFFF,FFFF,FFFF,FFFF,FFFF
002355	FFFF FFFF FFFF FFFF FFFF FFFF FFFF FFFF FFFF FFFF	RAW FFFF,FFFF,FFFF,FFFF,FFFF,FFFF,FFFF,FFFF,FFFF,FFFF
00235F	FFFF FFFF FFFF FFFF FFFF FFFF FFFF FFFF FFFF FFFF	RAW FFFF,FFFF,FFFF,FFFF,FFFF,FFFF,FFFF,FFFF,FFFF,FFFF
002369	FFFF FFFF FFF7 FFFF FFFF FFFF FFFF FFFF FFFF FFFF	RAW FFFF,FFFF,FFF7,FFFF,FFFF,FFFF,FFFF,FFFF,FFFF,FFFF
002373	FFFF FFFF FFFF FFFF FFFF FFFF FFFF FFFF FFFF FFFF	RAW FFFF,FFFF,FFFF,FFFF,FFFF,FFFF,FFFF,FFFF,FFFF,FFFF
00237D	FFFF FFFF FFFF FFFF FFFF FFFF FFFF FFFF FFFF FFFF	RAW FFFF,FFFF,FFFF,FFFF,FFFF,FFFF,FFFF,FFFF,FFFF,FFFF
002387	FFFF FFFF FFFF FFFF FFF7 FFFF FFFF FFFF FFFF FFFF	RAW FFFF,FFFF,FFFF,FFFF,FFF7,FFFF,FFFF,FFFF,FFFF,FFFF
002391	FFFF FFFF FCFE C9EA C0B8 D0C0 E0D8 E0E0 E0D8 E0E0	RAW FFFF,FFFF,FCFE,C9EA,C0B8,D0C0,E0D8,E0E0,E0D8,E0E0
00239B	E0E0 E0E0 E8E0 E0E8 E0E0 E0E0 C8D8 FDA0 FFFF FFFF	RAW E0E0,E0E0,E8E0,E0E8,E0E0,E0E0,C8D8,FDA0,FFFF,FFFF
0023A5	FFFF FFFF FFFF FFFF FFFF FFFF FFFF FFFF FFFF FFFF	RAW FFFF,FFFF,FFFF,FFFF,FFFF,FFFF,FFFF,FFFF,FFFF,FFFF
0023AF	FFFF FFFF FFFF FFFF FFFF FFFF FFFF FFFF FFFF FFFF	RAW FFFF,FFFF,FFFF,FFFF,FFFF,FFFF,FFFF,FFFF,FFFF,FFFF
0023B9	FFFF FFFF FFFF FFFF FFFF FFFF FFFF FFFF FFFF FFFF	RAW FFFF,FFFF,FFFF,FFFF,FFFF,FFFF,FFFF,FFFF,FFFF,FFFF
0023C3	F7FF FFFF FFFF FFFF FFFF FFFF FFFF FFFF FFFF FFFF	RAW F7FF,FFFF,FFFF,FFFF,FFFF,FFFF,FFFF,FFFF,FFFF,FFFF
0023CD	FFFF FFFF FFFF FFFF FFFF FFFF FFFF FFFF FFFF FFFF	RAW FFFF,FFFF,FFFF,FFFF,FFFF,FFFF,FFFF,FFFF,FFFF,FFFF
0023D7	FFFF FFFF FFFF FFFF FFFF FFFF FFFF FFFF FFFF FFFF	RAW FFFF,FFFF,FFFF,FFFF,FFFF,FFFF,FFFF,FFFF,FFFF,FFFF
0023E1	FFFF FFFF F7FF FFFF FFFF FFFF FFFF FFFF FFFF FFFF	RAW FFFF,FFFF,F7FF,FFFF,FFFF,FFFF,FFFF,FFFF,FFFF,FFFF
0023EB	FFFF FFFF F4FE B0C1 D0C8 E8E0 E0E0 E0E0 E0E0 E8E8	RAW FFFF,FFFF,F4FE,B0C1,D0C8,E8E0,E0E0,E0E0,E0E0,E8E8
0023F5	E8E0 E0E8 E0E0 E0E0 D0E0 C0C8 FFEB FFFF FFFF FFFF	RAW E8E0,E0E8,E0E0,E0E0,D0E0,C0C8,FFEB,FFFF,FFFF,FFFF
0023FF	FFFF FFFF FFFF FFFF FFFF FFFF FFFF FFFF FFFF FFFF	RAW FFFF,FFFF,FFFF,FFFF,FFFF,FFFF,FFFF,FFFF,FFFF,FFFF
002409	FFFF FFFF FFFF FFFF FFFF FFFF FFFF FFFF FFFF FFFF	RAW FFFF,FFFF,FFFF,FFFF,FFFF,FFFF,FFFF,FFFF,FFFF,FFFF
002413	FFFF FFFF FFFF FFFF FFFF FFFF FFFF FFFF FFFF FFFF	RAW FFFF,FFFF,FFFF,FFFF,FFFF,FFFF,FFFF,FFFF,FFFF,FFFF
00241D	FFF7 FFFF FFFF FFFF FFFF FFFF FFFF FFFF FFFF FFFF	RAW FFF7,FFFF,FFFF,FFFF,FFFF,FFFF,FFFF,FFFF,FFFF,FFFF
002427	FFFF FFFF FFFF FFFF FFFF FFFF FFFF FFFF FFFF FFFF	RAW FFFF,FFFF,FFFF,FFFF,FFFF,FFFF,FFFF,FFFF,FFFF,FFFF
002431	FFFF FFFF FFFF FFFF FFFF FFFF FFFF FFFF FFFF FFFF	RAW FFFF,FFFF,FFFF,FFFF,FFFF,FFFF,FFFF,FFFF,FFFF,FFFF
00243B	FFFF FFFF FFF7 FFFF FFFF FFFF FFFF FFFF FFFF FFFF	RAW FFFF,FFFF,FFF7,FFFF,FFFF,FFFF,FFFF,FFFF,FFFF,FFFF
002445	FFFF FDFF C9F3 C0B8 D8D0 E0D8 E0E0 E8E8 E8E8 E0E0	RAW FFFF,FDFF,C9F3,C0B8,D8D0,E0D8,E0E0,E8E8,E8E8,E0E0
00244F	E0E0 E0E0 E0E0 D8D8 D3B8 FFFF FFFF FFFF FFFF FFFF	RAW E0E0,E0E0,E0E0,D8D8,D3B8,FFFF,FFFF,FFFF,FFFF,FFFF
002459	FFFF FFFF FFFF FFFF FFFF FFFF FFFF FFFF FFFF FFFF	RAW FFFF,FFFF,FFFF,FFFF,FFFF,FFFF,FFFF,FFFF,FFFF,FFFF
002463	FFFF FFFF FFFF FFFF FFFF FFFF FFFF FFFF FFFF FFFF	RAW FFFF,FFFF,FFFF,FFFF,FFFF,FFFF,FFFF,FFFF,FFFF,FFFF
00246D	FFFF FFFF FFFF FFFF FFFF FFFF FFFF F7FF FFFF FFFF	RAW FFFF,FFFF,FFFF,FFFF,FFFF,FFFF,FFFF,F7FF,FFFF,FFFF
002477	FFFF FFFF FFFF FFFF FFFF FFFF FFFF FFFF FFFF FFFF	RAW FFFF,FFFF,FFFF,FFFF,FFFF,FFFF,FFFF,FFFF,FFFF,FFFF
002481	FFFF FFFF FFFF FFFF FFFF FFFF FFFF FFFF FFFF FFFF	RAW FFFF,FFFF,FFFF,FFFF,FFFF,FFFF,FFFF,FFFF,FFFF,FFFF
00248B	FFFF FFFF FFFF FFFF FFFF FFFF FFFF FFFF FFFF F7FF	RAW FFFF,FFFF,FFFF,FFFF,FFFF,FFFF,FFFF,FFFF,FFFF,F7FF
002495	FFFF FFFF FFFF FFFF FFFF FFFF FFFF FFFF FFFF FFFF	RAW FFFF,FFFF,FFFF,FFFF,FFFF,FFFF,FFFF,FFFF,FFFF,FFFF
00249F	FFFF D3FD C0A8 E0D0 E0E0 E0E0 E8E8 E0E0 E0E0 E0E0	RAW FFFF,D3FD,C0A8,E0D0,E0E0,E0E0,E8E8,E0E0,E0E0,E0E0
0024A9	D8E0 E0E0 B8D0 FFFC FFFF FFFF FFFF FFFF FFFF FFFF	RAW D8E0,E0E0,B8D0,FFFC,FFFF,FFFF,FFFF,FFFF,FFFF,FFFF
0024B3	FFFF FFFF FFFF FFFF FFFF FFFF FFFF FFFF FFFF FFFF	RAW FFFF,FFFF,FFFF,FFFF,FFFF,FFFF,FFFF,FFFF,FFFF,FFFF
0024BD	FFFF FFFF FFFF FFFF FFFF FFFF FFFF FFFF FFFF FFFF	RAW FFFF,FFFF,FFFF,FFFF,FFFF,FFFF,FFFF,FFFF,FFFF,FFFF
0024C7	FFFF FFFF FFFF FFFF FFFF F7FF FFFF FFFF FFFF FFFF	RAW FFFF,FFFF,FFFF,FFFF,FFFF,F7FF,FFFF,FFFF,FFFF,FFFF
0024D1	FFFF FFFF FFFF FFFF FFFF FFFF FFFF FFFF FFFF FFFF	RAW FFFF,FFFF,FFFF,FFFF,FFFF,FFFF,FFFF,FFFF,FFFF,FFFF
0024DB	FFFF FFFF FFFF FFFF FFFF FFFF FFFF FFFF FFFF FFFF	RAW FFFF,FFFF,FFFF,FFFF,FFFF,FFFF,FFFF,FFFF,FFFF,FFFF
0024E5	FFFF FFFF FFFF FFFF FFFF FFFF FFFF F7FF FFFF FFFF	RAW FFFF,FFFF,FFFF,FFFF,FFFF,FFFF,FFFF,F7FF,FFFF,FFFF
0024EF	FFFF FFFF FFFF FFFF FFFF FFFF FFFF FFFF FFFF FFFF	RAW FFFF,FFFF,FFFF,FFFF,FFFF,FFFF,FFFF,FFFF,FFFF,FFFF
0024F9	FCFE C0C1 D8D0 E0E0 E8E8 E0E0 E0E0 E0E0 E8E0 E0E0	RAW FCFE,C0C1,D8D0,E0E0,E8E8,E0E0,E0E0,E0E0,E8E0,E0E0
002503	D0E0 FEB0 FFFF FFFF FFFF FFFF FFFF FFFF FFFF FFFF	RAW D0E0,FEB0,FFFF,FFFF,FFFF,FFFF,FFFF,FFFF,FFFF,FFFF
00250D	FFFF FFFF FFFF FFFF FFFF FFFF FFFF FFFF FFFF FFFF	RAW FFFF,FFFF,FFFF,FFFF,FFFF,FFFF,FFFF,FFFF,FFFF,FFFF
002517	FFFF FFFF FFFF FFFF FFFF FFFF FFFF FFFF FFFF FFFF	RAW FFFF,FFFF,FFFF,FFFF,FFFF,FFFF,FFFF,FFFF,FFFF,FFFF
002521	FFFF FFFF FFFF FFFF FFF7 FFFF FFFF FFFF FFFF FFFF	RAW FFFF,FFFF,FFFF,FFFF,FFF7,FFFF,FFFF,FFFF,FFFF,FFFF
00252B	FFFF FFFF FFFF FFFF FFFF FFFF FFFF FFFF FFFF FFFF	RAW FFFF,FFFF,FFFF,FFFF,FFFF,FFFF,FFFF,FFFF,FFFF,FFFF
002535	FFFF FFFF FFFF FFFF FFFF FFFF FFFF FFFF FFFF FFFF	RAW FFFF,FFFF,FFFF,FFFF,FFFF,FFFF,FFFF,FFFF,FFFF,FFFF
00253F	FFFF FFFF FFFF FFFF FFFF FFFF FFF7 FFFF FFFF FFFF	RAW FFFF,FFFF,FFFF,FFFF,FFFF,FFFF,FFF7,FFFF,FFFF,FFFF
002549	FFFF FFFF FFFF FFFF FFFF FFFF FFFF FFFF FFFF FCFF	RAW FFFF,FFFF,FFFF,FFFF,FFFF,FFFF,FFFF,FFFF,FFFF,FCFF
002553	B8B1 E0D0 E0D8 E0E0 E0E8 E0E0 D8E0 E0E0 E0E0 CAC0	RAW B8B1,E0D0,E0D8,E0E0,E0E8,E0E0,D8E0,E0E0,E0E0,CAC0
00255D	FFFF FFFF FFFF FFFF FFFF FFFF FFFF FFFF FFFF FFFF	RAW FFFF,FFFF,FFFF,FFFF,FFFF,FFFF,FFFF,FFFF,FFFF,FFFF
002567	FFFF FFFF FFFF FFFF FFFF FFFF FFFF FFFF FFFF FFFF	RAW FFFF,FFFF,FFFF,FFFF,FFFF,FFFF,FFFF,FFFF,FFFF,FFFF
002571	FFFF FFFF FFFF FFFF FFFF FFFF FFFF FFFF FFFF FFFF	RAW FFFF,FFFF,FFFF,FFFF,FFFF,FFFF,FFFF,FFFF,FFFF,FFFF
00257B	FFFF FFFF FFF7 FFFF FFFF FFFF FFFF FFFF FFFF FFFF	RAW FFFF,FFFF,FFF7,FFFF,FFFF,FFFF,FFFF,FFFF,FFFF,FFFF
002585	FFFF FFFF FFFF FFFF FFFF FFFF FFFF FFFF FFFF FFFF	RAW FFFF,FFFF,FFFF,FFFF,FFFF,FFFF,FFFF,FFFF,FFFF,FFFF
00258F	FFFF FFFF FFFF FFFF FFFF FFFF FFFF FFFF FFFF FFFF	RAW FFFF,FFFF,FFFF,FFFF,FFFF,FFFF,FFFF,FFFF,FFFF,FFFF
002599	FFFF FFFF FFFF FFFF FFF7 FFFF FFFF FFFF FFFF FFFF	RAW FFFF,FFFF,FFFF,FFFF,FFF7,FFFF,FFFF,FFFF,FFFF,FFFF
0025A3	FFFF FFFF FFFF FFFF FFFF FFFF FFFF FFFF FCFF C0B0	RAW FFFF,FFFF,FFFF,FFFF,FFFF,FFFF,FFFF,FFFF,FCFF,C0B0
0025AD	D8D0 E8E0 E0E8 E0E0 E0E0 E0E0 E0E0 A8D8 FFFD FFFF	RAW D8D0,E8E0,E0E8,E0E0,E0E0,E0E0,E0E0,A8D8,FFFD,FFFF
0025B7	FFFF FFFF FFFF FFFF FFFF FFFF FFFF FFFF FFFF FFFF	RAW FFFF,FFFF,FFFF,FFFF,FFFF,FFFF,FFFF,FFFF,FFFF,FFFF
0025C1	FFFF FFFF FFFF FFFF FFFF FFFF FFFF FFFF FFFF FFFF	RAW FFFF,FFFF,FFFF,FFFF,FFFF,FFFF,FFFF,FFFF,FFFF,FFFF
0025CB	FFFF FFFF FFFF FFFF FFFF FFFF FFFF FFFF FFFF FFFF	RAW FFFF,FFFF,FFFF,FFFF,FFFF,FFFF,FFFF,FFFF,FFFF,FFFF
0025D5	FFFF FFFF FFFF FFFF FFFF FFFF FFFF FFFF FFFF FFFF	RAW FFFF,FFFF,FFFF,FFFF,FFFF,FFFF,FFFF,FFFF,FFFF,FFFF
0025DF	FFFF FFFF FFFF FFFF FFFF FFFF FFFF FFFF FFFF FFFF	RAW FFFF,FFFF,FFFF,FFFF,FFFF,FFFF,FFFF,FFFF,FFFF,FFFF
0025E9	FFFF FFFF FFFF FFFF FFFF FFFF FFFF FFFF FFFF FFFF	RAW FFFF,FFFF,FFFF,FFFF,FFFF,FFFF,FFFF,FFFF,FFFF,FFFF
0025F3	FFFF FFFF FFFF FFFF FFFF FFFF FFFF FFFF FFFF FFFF	RAW FFFF,FFFF,FFFF,FFFF,FFFF,FFFF,FFFF,FFFF,FFFF,FFFF
0025FD	FFFF FFFF FFFF FFFF FFFF F7FF FFFF D2FF D0B8 E8E0	RAW FFFF,FFFF,FFFF,FFFF,FFFF,F7FF,FFFF,D2FF,D0B8,E8E0
002607	E0E8 E0E0 E0E0 E8E0 E8E8 C0D8 FFFB FFFF FFFF FFFF	RAW E0E8,E0E0,E0E0,E8E0,E8E8,C0D8,FFFB,FFFF,FFFF,FFFF
002611	FFFF FFFF FFFF FFFF FFFF FFFF FFFF FFFF FFFF FFFF	RAW FFFF,FFFF,FFFF,FFFF,FFFF,FFFF,FFFF,FFFF,FFFF,FFFF
00261B	FFFF FFFF FFFF FFFF FFFF FFFF FFFF FFFF FFFF FFF7	RAW FFFF,FFFF,FFFF,FFFF,FFFF,FFFF,FFFF,FFFF,FFFF,FFF7
002625	FFFF FFFF FFFF FFFF FFFF FFFF FFFF FFFF FFFF FFFF	RAW FFFF,FFFF,FFFF,FFFF,FFFF,FFFF,FFFF,FFFF,FFFF,FFFF
00262F	FFFF FFFF FFFF FFFF FFFF FFFF FFFF FFFF FFFF FFFF	RAW FFFF,FFFF,FFFF,FFFF,FFFF,FFFF,FFFF,FFFF,FFFF,FFFF
002639	FFFF FFFF FFFF FFFF FFFF FFFF FFFF FFFF FFFF FFFF	RAW FFFF,FFFF,FFFF,FFFF,FFFF,FFFF,FFFF,FFFF,FFFF,FFFF
002643	FFFF FFFF FFFF FFFF FFFF FFFF FFFF FFFF FFFF FFFF	RAW FFFF,FFFF,FFFF,FFFF,FFFF,FFFF,FFFF,FFFF,FFFF,FFFF
00264D	FFFF FFFF FFFF FFFF FFFF FFFF FFFF FFFF FFFF FFFF	RAW FFFF,FFFF,FFFF,FFFF,FFFF,FFFF,FFFF,FFFF,FFFF,FFFF
002657	FFFF FFFF FFFF FFFF FFFF FFFF B0FC D8D0 E0E0 E0E0	RAW FFFF,FFFF,FFFF,FFFF,FFFF,FFFF,B0FC,D8D0,E0E0,E0E0
002661	E0E0 E8E0 E8E8 C8E0 FFFA FFFF FFFF E3FE FBFB FCFB	RAW E0E0,E8E0,E8E8,C8E0,FFFA,FFFF,FFFF,E3FE,FBFB,FCFB
00266B	FFFD FFFF FFFF FFFF FFFF FFFF FFFF FCDC FFFE FFFF	RAW FFFD,FFFF,FFFF,FFFF,FFFF,FFFF,FFFF,FCDC,FFFE,FFFF
002675	FFFF DBFF FBF3 FCFB FFFC FFFF FFFF EFFF 8C7B 848C	RAW FFFF,DBFF,FBF3,FCFB,FFFC,FFFF,FFFF,EFFF,8C7B,848C
00267F	B594 FFF7 FFFF FFFF FFFF FFFF FFFF FFFF FFFF FFFF	RAW B594,FFF7,FFFF,FFFF,FFFF,FFFF,FFFF,FFFF,FFFF,FFFF
002689	FFFF FFFF FFFF FFFF FFFF FFFF FFFF FFFF FFFF FFFF	RAW FFFF,FFFF,FFFF,FFFF,FFFF,FFFF,FFFF,FFFF,FFFF,FFFF
002693	FFFF FFFF 7BEF 8C83 9484 F7B5 FFFF FFFF FFFF FFFF	RAW FFFF,FFFF,7BEF,8C83,9484,F7B5,FFFF,FFFF,FFFF,FFFF
00269D	FFFF FFFF FFFF FFFF FFFF FFFF FFFF FFFF FFFF FFFF	RAW FFFF,FFFF,FFFF,FFFF,FFFF,FFFF,FFFF,FFFF,FFFF,FFFF
0026A7	FFFF FFFF FFFF FFFF FFFF FFFF FFFF FFFF FFFF FFFF	RAW FFFF,FFFF,FFFF,FFFF,FFFF,FFFF,FFFF,FFFF,FFFF,FFFF
0026B1	FFFF FFFF FFFF FFFF FEFF D0A1 E0E0 E0E0 E8E0 E0E0	RAW FFFF,FFFF,FFFF,FFFF,FEFF,D0A1,E0E0,E0E0,E8E0,E0E0
0026BB	E0E0 D0E0 FFE8 FFFF FFFF A8EC D0D0 C0C0 A1B0 FFFE	RAW E0E0,D0E0,FFE8,FFFF,FFFF,A8EC,D0D0,C0C0,A1B0,FFFE
0026C5	FFFF FFFF FFFF FFFF FEFF A8A1 FDA0 FFFF FFFF A9FE	RAW FFFF,FFFF,FFFF,FFFF,FEFF,A8A1,FDA0,FFFF,FFFF,A9FE
0026CF	C0C0 C0C8 98B0 FFFD FFFF ADFF 1808 1818 1010 C608 FFFF	RAW C0C0,C0C8,98B0,FFFD,FFFF,ADFF,1808,1818,1010,C608,FFFF
0026DA	FFFF FFFF FFFF FFFF FFFF FFFF FFFF FFFF FFFF FFFF	RAW FFFF,FFFF,FFFF,FFFF,FFFF,FFFF,FFFF,FFFF,FFFF,FFFF
0026E4	FFFF FFFF FFFF FFFF FFFF FFFF FFFF FFFF FFFF 08AD	RAW FFFF,FFFF,FFFF,FFFF,FFFF,FFFF,FFFF,FFFF,FFFF,08AD
0026EE	1818 1018 0810 FFCE FFFF FFFF FFFF FFFF FFFF FFFF FFFF	RAW 1818,1018,0810,FFCE,FFFF,FFFF,FFFF,FFFF,FFFF,FFFF,FFFF
0026F9	FFFF FFFF FFFF FFFF FFFF FFFF FFFF FFFF FFFF FFFF	RAW FFFF,FFFF,FFFF,FFFF,FFFF,FFFF,FFFF,FFFF,FFFF,FFFF
002703	FFFF FFFF FFFF FFFF FFFF FFFF FFFF FFFF FFFF FFF7	RAW FFFF,FFFF,FFFF,FFFF,FFFF,FFFF,FFFF,FFFF,FFFF,FFF7
00270D	FFFF C9FF D8C8 E8E0 E8E0 E0E0 E0E0 D8D8 FFE0 FFFF	RAW FFFF,C9FF,D8C8,E8E0,E8E0,E0E0,E0E0,D8D8,FFE0,FFFF
002717	FFFF C0CA D8D8 D8D8 C8D0 FFB1 FFFF FFFF FFFF F7FF	RAW FFFF,C0CA,D8D8,D8D8,C8D0,FFB1,FFFF,FFFF,FFFF,F7FF
002721	FCFF C8B8 A0C0 FFFE FFFF A0FF D0C8 D8D8 C8D0 FEA8	RAW FCFF,C8B8,A0C0,FFFE,FFFF,A0FF,D0C8,D8D8,C8D0,FEA8
00272B	FFFF 62FF 2010 2018 1818 1010 FFEF FFFF FFFF FFFF FFFF	RAW FFFF,62FF,2010,2018,1818,1010,FFEF,FFFF,FFFF,FFFF,FFFF
002736	FFFF FFFF FFFF FFFF FFFF FFFF FFFF FFFF FFFF FFFF	RAW FFFF,FFFF,FFFF,FFFF,FFFF,FFFF,FFFF,FFFF,FFFF,FFFF
002740	FFFF FFFF FFFF FFFF FFFF 0863 1820 2020 1020 EF10 FFFF	RAW FFFF,FFFF,FFFF,FFFF,FFFF,0863,1820,2020,1020,EF10,FFFF
00274B	FFFF FFFF FFFF FFFF FFFF FFFF FFFF FFFF FFFF FFFF	RAW FFFF,FFFF,FFFF,FFFF,FFFF,FFFF,FFFF,FFFF,FFFF,FFFF
002755	FFFF FFFF FFFF FFFF FFFF FFFF FFFF FFFF FFFF FFFF	RAW FFFF,FFFF,FFFF,FFFF,FFFF,FFFF,FFFF,FFFF,FFFF,FFFF
00275F	FFFF FFFF FFFF FFFF FFFF FFFF FFFF FEFF D0B9 E0E8	RAW FFFF,FFFF,FFFF,FFFF,FFFF,FFFF,FFFF,FEFF,D0B9,E0E8
002769	E0D8 E0E0 E0E0 D8D8 FFF1 FFFF FEFF D0A8 E0E0 E0E0	RAW E0D8,E0E0,E0E0,D8D8,FFF1,FFFF,FEFF,D0A8,E0E0,E0E0
002773	E0E0 FEB8 FFFF FFFF FFFF FFFF D2FF D8D0 B0D0 FFFC	RAW E0E0,FEB8,FFFF,FFFF,FFFF,FFFF,D2FF,D8D0,B0D0,FFFC
00277D	FFFF FDFF C0A8 C0C0 C0C8 FDA8 FFFF 10EF 1820 2020 2020	RAW FFFF,FDFF,C0A8,C0C0,C0C8,FDA8,FFFF,10EF,1820,2020,2020
002788	1020 FFC6 FFFF FFFF FFFF FFFF FFFF FFFF FFFF FFFF	RAW 1020,FFC6,FFFF,FFFF,FFFF,FFFF,FFFF,FFFF,FFFF,FFFF
002792	FFFF FFFF FFFF FFFF FFFF FFFF FFFF FFFF FFFF FFFF	RAW FFFF,FFFF,FFFF,FFFF,FFFF,FFFF,FFFF,FFFF,FFFF,FFFF
00279C	E7FF 1810 2020 1820 2018 D610 FFFF FFFF FFFF FFFF FFFF	RAW E7FF,1810,2020,1820,2018,D610,FFFF,FFFF,FFFF,FFFF,FFFF
0027A7	FFFF FFFF FFFF FFFF FFFF FFFF FFFF FFFF FFFF FFFF	RAW FFFF,FFFF,FFFF,FFFF,FFFF,FFFF,FFFF,FFFF,FFFF,FFFF
0027B1	FFFF FFFF FFFF FFFF FFFF FFFF FFFF FFFF FFFF FFFF	RAW FFFF,FFFF,FFFF,FFFF,FFFF,FFFF,FFFF,FFFF,FFFF,FFFF
0027BB	FFFF FFFF FFFF FFFF B8FE D8E0 E0E0 E0E0 E0E0 D0D8	RAW FFFF,FFFF,FFFF,FFFF,B8FE,D8E0,E0E0,E0E0,E0E0,D0D8
0027C5	FFFA FFFF FCFF D8C0 E0E0 E8E0 D8E0 FFB9 FFFF FFFF	RAW FFFA,FFFF,FCFF,D8C0,E0E0,E8E0,D8E0,FFB9,FFFF,FFFF
0027CF	FFFF FFFF B8FE E0D8 B0D0 FFFE FFFF FFFF FDFF ECF4	RAW FFFF,FFFF,B8FE,E0D8,B0D0,FFFE,FFFF,FFFF,FDFF,ECF4
0027D9	F4EC FFDC FFFF 10BD 2920 2018 1820 1818 FFE7 FFFF FFFF	RAW F4EC,FFDC,FFFF,10BD,2920,2018,1820,1818,FFE7,FFFF,FFFF
0027E4	FFFF FFFF FFFF FFFF FFFF FFFF FFFF FFFF FFFF FFFF	RAW FFFF,FFFF,FFFF,FFFF,FFFF,FFFF,FFFF,FFFF,FFFF,FFFF
0027EE	FFFF FFFF FFFF FFFF FFFF FFFF ADFF 2008 2020 2020 1820	RAW FFFF,FFFF,FFFF,FFFF,FFFF,FFFF,ADFF,2008,2020,2020,1820
0027F9	EF18 FFFF FFFF FFFF FFFF FFFF FFFF FFFF FFFF FFFF	RAW EF18,FFFF,FFFF,FFFF,FFFF,FFFF,FFFF,FFFF,FFFF,FFFF
002803	FFFF FFFF FFFF FFFF FFFF FFFF FFFF FFFF FFFF FFFF	RAW FFFF,FFFF,FFFF,FFFF,FFFF,FFFF,FFFF,FFFF,FFFF,FFFF
00280D	FFFF FFFF FFFF FFFF FFFF FFFF FFFF FFFF FFFF FFFF	RAW FFFF,FFFF,FFFF,FFFF,FFFF,FFFF,FFFF,FFFF,FFFF,FFFF
002817	FCFF D0B8 E0E0 E0E0 E0E0 C0D8 FFFB FFFF E2FF D8D0	RAW FCFF,D0B8,E0E0,E0E0,E0E0,C0D8,FFFB,FFFF,E2FF,D8D0
002821	D8E0 E0E0 C8E0 FFEB FFFF FFFF FFFF FFFF C0F4 E8E0	RAW D8E0,E0E0,C8E0,FFEB,FFFF,FFFF,FFFF,FFFF,C0F4,E8E0
00282B	B9C8 FFFF FFFF FEFE FFFF FFFF FFFF FFFF FFFF 106B	RAW B9C8,FFFF,FFFF,FEFE,FFFF,FFFF,FFFF,FFFF,FFFF,106B
002835	2020 2020 1820 5210 FFFF FFFF FFFF FFFF FFFF FFFF FFFF	RAW 2020,2020,1820,5210,FFFF,FFFF,FFFF,FFFF,FFFF,FFFF,FFFF
002840	FFFF FFFF FFFF EFF7 EFEF EFEF EFEF EFEF FFF7 FFFF	RAW FFFF,FFFF,FFFF,EFF7,EFEF,EFEF,EFEF,EFEF,FFF7,FFFF
00284A	FFFF FFFF 73FF 2008 1820 2020 1020 FF62 FFFF FFFF FFFF	RAW FFFF,FFFF,73FF,2008,1820,2020,1020,FF62,FFFF,FFFF,FFFF
002855	FFFF FFFF FFFF FFFF EFFF EFEF EFEF EFEF EFEF EFEF	RAW FFFF,FFFF,FFFF,FFFF,EFFF,EFEF,EFEF,EFEF,EFEF,EFEF
00285F	FFF7 FFFF FFFF F7FF EFEF EFEF EFEF EFEF E7E7 F7EF	RAW FFF7,FFFF,FFFF,F7FF,EFEF,EFEF,EFEF,EFEF,E7E7,F7EF
002869	EFF7 E7EF F7EF FFF7 FFFF FFFF FFFF C8CA E0E0 E0E0	RAW EFF7,E7EF,F7EF,FFF7,FFFF,FFFF,FFFF,C8CA,E0E0,E0E0
002873	E0E0 B0D0 FFFD FFFF C0FE E0E0 E0E0 E8E0 B8D8 FFFD	RAW E0E0,B0D0,FFFD,FFFF,C0FE,E0E0,E0E0,E8E0,B8D8,FFFD
00287D	FFFF FFFF FFFF FFFF C8CA E8E0 ECC8 FFFF A9FF C0B8	RAW FFFF,FFFF,FFFF,FFFF,C8CA,E8E0,ECC8,FFFF,A9FF,C0B8
002887	C0B8 E2C1 FFFE FFFF FFFF 1829 2020 2018 1820 A408 FFFF	RAW C0B8,E2C1,FFFE,FFFF,FFFF,1829,2020,2018,1820,A408,FFFF
002892	FFFF FFFF FFFF FFFF FFFF FFFF FFFF B5FF 315A 2020 2020	RAW FFFF,FFFF,FFFF,FFFF,FFFF,FFFF,FFFF,B5FF,315A,2020,2020
00289D	2021 2021 2020 2118 FFA4 FFFF FFFF 21F7 2018 2020 1820 1020	RAW 2021,2021,2020,2118,FFA4,FFFF,FFFF,21F7,2018,2020,1820,1020
0028A9	FFB5 FFFF FFFF FFFF FFFF FFFF FFFF 529C 1829 2020 2020	RAW FFB5,FFFF,FFFF,FFFF,FFFF,FFFF,FFFF,529C,1829,2020,2020
0028B4	1821 2020 2021 2118 FF73 FFFF 94FF 2008 2020 2020 2820 2020 2820	RAW 1821,2020,2021,2118,FF73,FFFF,94FF,2008,2020,2020,2820,2020,2820
0028C1	2828 2020 2820 1820 E74A FFFF FFFF B8FD D8E0 E0E0 E0E0	RAW 2828,2020,2820,1820,E74A,FFFF,FFFF,B8FD,D8E0,E0E0,E0E0
0028CC	B1D0 FFFE FFFF C8FD E0E8 E0D8 E0E0 A8D0 FFFE FFFF	RAW B1D0,FFFE,FFFF,C8FD,E0E8,E0D8,E0E0,A8D0,FFFE,FFFF
0028D6	FFFF FFFF FEFF C8A8 E0E8 FEC0 FFFF B8FD D8D8 E8E0	RAW FFFF,FFFF,FEFF,C8A8,E0E8,FEC0,FFFF,B8FD,D8D8,E8E0
0028E0	B8D8 FE98 FFFF C6FF 2010 2020 2020 2020 DE10 FFFF FFFF	RAW B8D8,FE98,FFFF,C6FF,2010,2020,2020,2020,DE10,FFFF,FFFF
0028EB	FFFF FFFF FFFF FFFF FFFF ADFF 1029 1818 2020 2020 1818	RAW FFFF,FFFF,FFFF,FFFF,FFFF,ADFF,1029,1818,2020,2020,1818
0028F6	1010 2020 1820 D610 FFFF 7BEF 185A 2020 2018 2020 2018 8C73	RAW 1010,2020,1820,D610,FFFF,7BEF,185A,2020,2018,2020,2018,8C73
002902	7373 637B F75A FFFF FFFF 18A4 1010 1818 2020 1818 1818 0808	RAW 7373,637B,F75A,FFFF,FFFF,18A4,1010,1818,2020,1818,1818,0808
00290E	2018 1818 A408 FFFF 41FF 1810 1818 2020 1828 1820 0810 0008 0008 2018	RAW 2018,1818,A408,FFFF,41FF,1810,1818,2020,1828,1820,0810,0008,0008,2018
00291C	1820 6B00 FFFF FFFF C1FF E0D8 E0E0 E8E0 ECC0 FFFF FFFF	RAW 1820,6B00,FFFF,FFFF,C1FF,E0D8,E0E0,E8E0,ECC0,FFFF,FFFF
002927	C8D3 E0E0 E0E0 E8E8 D3D0 FFFF FFFF FFFF FFFF FCFF	RAW C8D3,E0E0,E0E0,E8E8,D3D0,FFFF,FFFF,FFFF,FFFF,FCFF
002931	D8C0 D8E8 FFD1 FFFF C0E3 E8E8 E0E8 D8D8 CBB0 FFFF	RAW D8C0,D8E8,FFD1,FFFF,C0E3,E8E8,E0E8,D8D8,CBB0,FFFF
00293B	8CFF 2008 2028 2020 1020 FF41 FFFF FFFF FFFF FFFF FFFF	RAW 8CFF,2008,2028,2020,1020,FF41,FFFF,FFFF,FFFF,FFFF,FFFF
002946	FFFF FFFF 1062 2020 1820 2020 1820 3110 9C6B 1831 2020 AD18	RAW FFFF,FFFF,1062,2020,1820,2020,1820,3110,9C6B,1831,2020,AD18
002952	FFFF 0018 1810 2020 2020 2020 1820 0808 0808 0008 FF73 FFFF 4AEF	RAW FFFF,0018,1810,2020,2020,2020,1820,0808,0808,0008,FF73,FFFF,4AEF
00295F	1810 2020 2020 2018 1018 7339 B59C 1852 2018 7B18 FFFF 10D6	RAW 1810,2020,2020,2018,1018,7339,B59C,1852,2018,7B18,FFFF,10D6
00296B	2020 2020 2020 2020 2010 A584 9C94 B59C 106B 1020 4A10 FFFF	RAW 2020,2020,2020,2020,2010,A584,9C94,B59C,106B,1020,4A10,FFFF
002977	FFFF E2FF E0D0 E0E0 D8E0 FEB8 FFFF FEFF D0A9 E0E0	RAW FFFF,E2FF,E0D0,E0E0,D8E0,FEB8,FFFF,FEFF,D0A9,E0E0
002981	E8E8 E8E0 FCC8 FFFF FFFF FFFF FFFF F2FF E0D0 D0D8	RAW E8E8,E8E0,FCC8,FFFF,FFFF,FFFF,FFFF,F2FF,E0D0,D0D8
00298B	FFFB FFFF D0C1 E8E8 E8E8 E0E8 DBC0 FFFF 39FF 2810 2020	RAW FFFB,FFFF,D0C1,E8E8,E8E8,E0E8,DBC0,FFFF,39FF,2810,2020
002996	2020 0820 FF94 FFFF FFFF FFFF FFFF FFFF FFFF 29F7 1810	RAW 2020,0820,FF94,FFFF,FFFF,FFFF,FFFF,FFFF,FFFF,29F7,1810
0029A1	2018 2820 2020 2010 FFB5 F7FF 1820 1820 DE10 7BFF 3108 2020	RAW 2018,2820,2020,2010,FFB5,F7FF,1820,1820,DE10,7BFF,3108,2020
0029AD	2018 2020 2020 1818 2129 2129 9418 FFFF D6FF 1018 2020 2018 2020	RAW 2018,2020,2020,1818,2129,2129,9418,FFFF,D6FF,1018,2020,2018,2020
0029BA	1020 C631 FFFF FFFF 1052 2020 B508 FFFF 108C 2020 2020 2020	RAW 1020,C631,FFFF,FFFF,1052,2020,B508,FFFF,108C,2020,2020,2020
0029C6	1020 F752 FFFF FFFF FFFF 008C 2018 7308 FFFF FFFF FCFF	RAW 1020,F752,FFFF,FFFF,FFFF,008C,2018,7308,FFFF,FFFF,FCFF
0029D1	D8C0 E8E8 C8D8 FFF3 FFFF FDFF D8B0 E0E8 E0E0 E0E8	RAW D8C0,E8E8,C8D8,FFF3,FFFF,FDFF,D8B0,E0E8,E0E0,E0E8
0029DB	E1D8 D1D9 D1C9 C9D1 C9D1 D0D1 E0E0 B8D8 FFFD FEFF	RAW E1D8,D1D9,D1C9,C9D1,C9D1,D0D1,E0E0,B8D8,FFFD,FEFF
0029E5	D0B0 E8E0 E0E0 E0E8 FEB8 FFFF 10D6 2020 2020 2020 1018	RAW D0B0,E8E0,E0E0,E0E8,FEB8,FFFF,10D6,2020,2020,2020,1018
0029F0	FFCE FFFF FFFF FFFF FFFF FFFF FFFF 0839 2020 2020 2020	RAW FFCE,FFFF,FFFF,FFFF,FFFF,FFFF,FFFF,0839,2020,2020,2020
0029FB	1020 E729 FFFF B5FF 2010 1028 FF39 EFFF CEFF 2010 2020 2020	RAW 1020,E729,FFFF,B5FF,2010,1028,FF39,EFFF,CEFF,2010,2020,2020
002A07	2020 C518 FFFF F7F7 FFFF FFFF 10F7 2010 2020 2020 2020 5208	RAW 2020,C518,FFFF,F7F7,FFFF,FFFF,10F7,2010,2020,2020,2020,5208
002A13	FFFF FFFF E6FF 1810 2020 E710 FFFF 104A 2020 2020 2020 5210	RAW FFFF,FFFF,E6FF,1810,2020,E710,FFFF,104A,2020,2020,2020,5210
002A1F	FFFF FFFF FFFF FFFF 1831 2018 B510 FFFF FFFF FCFF D8C0	RAW FFFF,FFFF,FFFF,FFFF,1831,2018,B510,FFFF,FFFF,FCFF,D8C0
002A2A	E0E8 A8D0 FFFE FFFF F3FF E0C8 E8E8 E8E0 D8E0 C8D0	RAW E0E8,A8D0,FFFE,FFFF,F3FF,E0C8,E8E8,E8E0,D8E0,C8D0
002A34	B8C0 C0C0 B8C0 C0C0 D8C8 E8E8 B1D0 FFFE FCFF D8C0	RAW B8C0,C0C0,B8C0,C0C0,D8C8,E8E8,B1D0,FFFE,FCFF,D8C0
002A3E	E0E0 E0E0 D8E0 FFC0 FFFF 089C 1820 2018 2020 2910 FFF7	RAW E0E0,E0E0,D8E0,FFC0,FFFF,089C,1820,2018,2020,2910,FFF7
002A49	FFFF FFFF FFFF FFFF FFFF 52FF 2000 2020 2020 2020 1018 FFEF	RAW FFFF,FFFF,FFFF,FFFF,FFFF,52FF,2000,2020,2020,2020,1018,FFEF
002A55	FFFF 63FF 2010 1020 FF83 FFFF ADFF 1808 2020 1820 1020 FF29	RAW FFFF,63FF,2010,1020,FF83,FFFF,ADFF,1808,2020,1820,1020,FF29
002A61	FFFF FFFF FFFF FFFF 0841 2020 2018 2020 1020 FF41 FFFF FFFF	RAW FFFF,FFFF,FFFF,FFFF,0841,2020,2018,2020,1020,FF41,FFFF,FFFF
002A6D	9CFF 2010 1018 FF4A E6FF 1810 2020 2020 2020 C608 FFFF FFFF	RAW 9CFF,2010,1018,FF4A,E6FF,1810,2020,2020,2020,C608,FFFF,FFFF
002A79	FFFF D6FF 2010 1820 EF18 FFFF FFFF FCFF D8C0 D8E0 ECC0	RAW FFFF,D6FF,2010,1820,EF18,FFFF,FFFF,FCFF,D8C0,D8E0,ECC0
002A84	FFFF FFFF C9FF E0D0 E0E8 D8E8 C8D8 DAD9 D2CA CACA	RAW FFFF,FFFF,C9FF,E0D0,E0E8,D8E8,C8D8,DAD9,D2CA,CACA
002A8E	CAD2 EAD2 D8D1 E0E0 CBC0 FFFF E2FF E0D0 E0E0 E0E0	RAW CAD2,EAD2,D8D1,E0E0,CBC0,FFFF,E2FF,E0D0,E0E0,E0E0
002A98	C8D8 FFF3 FFFF 1052 2020 2020 2018 7310 FFFF FFFF FFFF	RAW C8D8,FFF3,FFFF,1052,2020,2020,2018,7310,FFFF,FFFF,FFFF
002AA3	FFFF FFFF FFFF 08B5 2020 2020 2020 1818 B500 FFFF FFFF 10C5	RAW FFFF,FFFF,FFFF,08B5,2020,2020,2020,1818,B500,FFFF,FFFF,10C5
002AAF	2018 1020 FFC6 FFFF 4AFF 2018 2020 2018 0820 FF7B FFFF FFFF	RAW 2018,1020,FFC6,FFFF,4AFF,2018,2020,2018,0820,FF7B,FFFF,FFFF
002ABB	FFFF A4FF 2000 2020 2020 1820 0820 FFCE FFFF FFFF 39FF 2018	RAW FFFF,A4FF,2000,2020,2020,1820,0820,FFCE,FFFF,FFFF,39FF,2018
002AC7	1018 FF9C A5FF 2008 1818 2018 2020 F720 FFFF FFFF FFFF 94FF	RAW 1018,FF9C,A5FF,2008,1818,2018,2020,F720,FFFF,FFFF,FFFF,94FF
002AD3	2008 1020 FF62 FFFF FFFF FCFF D8C0 C8E0 FFB9 FFFF FFFF	RAW 2008,1020,FF62,FFFF,FFFF,FCFF,D8C0,C8E0,FFB9,FFFF,FFFF
002ADE	B8FE E8D8 E0E0 E0E0 B8D0 FFFD FFFF FFFF FFFF FEFF	RAW B8FE,E8D8,E0E0,E0E0,B8D0,FFFD,FFFF,FFFF,FFFF,FEFF
002AE8	D8D9 E0E0 FDB8 FFFF B8FE E0E0 E0E0 E0E0 B8D8 FFFD	RAW D8D9,E0E0,FDB8,FFFF,B8FE,E0E0,E0E0,E0E0,B8D8,FFFD
002AF2	DEFF 2010 2020 2020 2020 C508 FFFF FFFF FFFF FFFF FFFF	RAW DEFF,2010,2020,2020,2020,C508,FFFF,FFFF,FFFF,FFFF,FFFF
002AFD	FFFF 1041 2020 2020 2020 1020 F731 FFFF 94FF 1808 2020 3110	RAW FFFF,1041,2020,2020,2020,1020,F731,FFFF,94FF,1808,2020,3110
002B09	FFFF FFFF 10DE 2020 2020 1820 0820 FFBD FFFF FFFF FFFF	RAW FFFF,FFFF,10DE,2020,2020,1820,0820,FFBD,FFFF,FFFF,FFFF
002B14	20FF 2018 2020 2020 2020 5210 FFFF FFFF FFFF 10D6 2018 0820	RAW 20FF,2018,2020,2020,2020,5210,FFFF,FFFF,FFFF,10D6,2018,0820
002B20	FFDE 52FF 1810 2020 2020 1820 FF6B FFFF FFFF FFFF 41FF	RAW FFDE,52FF,1810,2020,2020,1820,FF6B,FFFF,FFFF,FFFF,41FF
002B2B	2018 1020 FFA4 FFFF FFFF FBFF D8C8 B0D0 FFFD FFFF FFFF	RAW 2018,1020,FFA4,FFFF,FFFF,FBFF,D8C8,B0D0,FFFD,FFFF,FFFF
002B36	C0EC E0E0 D8E0 E8E0 B9D0 FFFE FFFF FFFF FFFF FDFF	RAW C0EC,E0E0,D8E0,E8E0,B9D0,FFFE,FFFF,FFFF,FFFF,FDFF
002B40	D8B8 D8E0 FEB8 FFFF C0FD E0E0 E8E0 E0E0 A8C8 FFFE	RAW D8B8,D8E0,FEB8,FFFF,C0FD,E0E0,E8E0,E0E0,A8C8,FFFE
002B4A	9CFF 2008 2020 2020 1820 F729 FFFF FFFF FFFF FFFF FFFF	RAW 9CFF,2008,2020,2020,1820,F729,FFFF,FFFF,FFFF,FFFF,FFFF
002B55	DEFF 1810 2020 2018 2020 1820 6B39 5A5A 1029 1818 1020 B500 FFFF	RAW DEFF,1810,2020,2018,2020,1820,6B39,5A5A,1029,1818,1020,B500,FFFF
002B62	FFFF 10A5 2020 2020 2020 2018 FFEF FFFF FFFF FFFF 08CE 2020	RAW FFFF,10A5,2020,2020,2020,2018,FFEF,FFFF,FFFF,FFFF,08CE,2020
002B6E	2020 2020 2020 A408 FFFF FFFF FFFF 089C 1820 4A10 FFFF 18EF	RAW 2020,2020,2020,A408,FFFF,FFFF,FFFF,089C,1820,4A10,FFFF,18EF
002B7A	2018 2020 2020 1020 FFB5 FFFF FFFF FFFF 18DE 2020 1820 FFDE	RAW 2018,2020,2020,1020,FFB5,FFFF,FFFF,FFFF,18DE,2020,1820,FFDE
002B86	FFFF FFFF E2FF D8D0 FCC0 FFFF FFFF FFFF C8C2 E8E0	RAW FFFF,FFFF,E2FF,D8D0,FCC0,FFFF,FFFF,FFFF,C8C2,E8E0
002B90	E0E0 E0D8 E3D0 FFFF FFFF FFFF FFFF FBFF D8C0 D0E0	RAW E0E0,E0D8,E3D0,FFFF,FFFF,FFFF,FFFF,FBFF,D8C0,D0E0
002B9A	FFE2 FFFF C8DB E8E0 E0E0 E0E0 CAC8 FFFF 5AFF 2010 2018	RAW FFE2,FFFF,C8DB,E8E0,E0E0,E0E0,CAC8,FFFF,5AFF,2010,2018
002BA5	2028 1020 FF73 FFFF FFFF FFFF FFFF FFFF 9CFF 2010 2018	RAW 2028,1020,FF73,FFFF,FFFF,FFFF,FFFF,FFFF,9CFF,2010,2018
002BB0	2020 2020 2820 1018 0808 1818 1020 1010 FF7B FFFF FFFF 106B 2020	RAW 2020,2020,2820,1018,0808,1818,1020,1010,FF7B,FFFF,FFFF,106B,2020
002BBD	2020 2020 6210 FFFF FFFF FFFF FFFF 106B 2018 2020 2020 2020	RAW 2020,2020,6210,FFFF,FFFF,FFFF,FFFF,106B,2018,2020,2020,2020
002BC9	BD18 FFFF FFFF FFFF 1052 2020 9408 FFFF 08BD 2020 2020 2020	RAW BD18,FFFF,FFFF,FFFF,1052,2020,9408,FFFF,08BD,2020,2020,2020
002BD5	1820 FFEF FFFF FFFF FFFF 08AD 2020 4118 FFFF FFFF FFFF	RAW 1820,FFEF,FFFF,FFFF,FFFF,08AD,2020,4118,FFFF,FFFF,FFFF
002BE0	C0FE C0D0 FFD2 FFFF FFFF FEFF C8B1 E0E0 E0E0 E8E0	RAW C0FE,C0D0,FFD2,FFFF,FFFF,FEFF,C8B1,E0E0,E0E0,E8E0
002BEA	FDC0 FFFF FFFF FFFF FFFF DAFF D8D0 C0D8 FFFC FEFF	RAW FDC0,FFFF,FFFF,FFFF,FFFF,DAFF,D8D0,C0D8,FFFC,FEFF
002BF4	D0B1 E0E0 E0E0 E0E0 FCC0 FFFF 18EF 2018 1828 2018 1018	RAW D0B1,E0E0,E0E0,E0E0,FCC0,FFFF,18EF,2018,1828,2018,1018
002BFF	FFB5 FFFF FFFF FFFF FFFF FFFF 52FF 2018 2028 2020 2020	RAW FFB5,FFFF,FFFF,FFFF,FFFF,FFFF,52FF,2018,2028,2020,2020
002C0A	2020 4A41 4A41 4141 4241 C663 FFFF FFFF F7FF 1818 2018 2020	RAW 2020,4A41,4A41,4141,4241,C663,FFFF,FFFF,F7FF,1818,2018,2020
002C16	2020 AD08 FFFF FFFF FFFF F7FF 1829 2020 2020 2020 2020 C618	RAW 2020,AD08,FFFF,FFFF,FFFF,F7FF,1829,2020,2020,2020,2020,C618
002C22	FFFF FFFF EFFF 2018 2018 D608 FFFF 0873 2020 2020 2020 5218	RAW FFFF,FFFF,EFFF,2018,2018,D608,FFFF,0873,2020,2020,2020,5218
002C2E	FFFF FFFF FFFF FFFF 105A 2018 8C10 FFFF FFFF FFFF C0FD	RAW FFFF,FFFF,FFFF,FFFF,105A,2018,8C10,FFFF,FFFF,FFFF,C0FD
002C39	A0D0 FFFE FFFF FFFF FCFF D0B0 E0E0 E0E8 D8E0 FEB8	RAW A0D0,FFFE,FFFF,FFFF,FCFF,D0B0,E0E0,E0E8,D8E0,FEB8
002C43	FFFF FFFF FFFF FFFF B8FE E0D8 B0C8 FFFE FDFF D0B8	RAW FFFF,FFFF,FFFF,FFFF,B8FE,E0D8,B0C8,FFFE,FDFF,D0B8
002C4D	E0E0 E0E8 D8E0 FEB8 FFFF 08AD 2020 2018 2020 1818 FFEF	RAW E0E0,E0E8,D8E0,FEB8,FFFF,08AD,2020,2018,2020,1818,FFEF
002C58	FFFF FFFF FFFF FFFF FFFF 18E7 2020 2020 2018 2020 1020	RAW FFFF,FFFF,FFFF,FFFF,FFFF,18E7,2020,2020,2018,2020,1020
002C63	FF94 FFFF FFFF FFFF FFFF FFFF FFFF C5FF 2010 2020 2020	RAW FF94,FFFF,FFFF,FFFF,FFFF,FFFF,FFFF,C5FF,2010,2020,2020
002C6E	1820 E618 FFFF FFFF FFFF CEFF 2010 2020 2020 2020 2020 AD10	RAW 1820,E618,FFFF,FFFF,FFFF,CEFF,2010,2020,2020,2020,2020,AD10
002C7A	FFFF FFFF BDFF 2008 1828 FF39 FFFF 1029 2020 2020 2020 A408	RAW FFFF,FFFF,BDFF,2008,1828,FF39,FFFF,1029,2020,2020,2020,A408
002C86	FFFF FFFF FFFF E6FF 1810 1820 CE08 FFFF FFFF FFFF B8C2	RAW FFFF,FFFF,FFFF,E6FF,1810,1820,CE08,FFFF,FFFF,FFFF,B8C2
002C91	FEA8 FFFF FFF7 FFFF FAFF D8D0 E8E0 E0E8 C8D8 FFDA	RAW FEA8,FFFF,FFF7,FFFF,FAFF,D8D0,E8E0,E0E8,C8D8,FFDA
002C9B	FFFF FFFF FFFF FFFF C0F4 E0D8 B1C8 FFFF E2FF D0C0	RAW FFFF,FFFF,FFFF,FFFF,C0F4,E0D8,B1C8,FFFF,E2FF,D0C0
002CA5	E0D8 E0E0 C8D8 FFDA FFFF 106B 2020 2020 1818 7310 FFFF	RAW E0D8,E0E0,C8D8,FFDA,FFFF,106B,2020,2020,1818,7310,FFFF
002CB0	FFFF FFFF FFFF FFFF FFFF 18E6 2018 2020 2020 2020 1820 DE20	RAW FFFF,FFFF,FFFF,FFFF,FFFF,18E6,2018,2020,2020,2020,1820,DE20
002CBC	FFFF FFFF FFFF FFFF FFFF FFFF 6BFF 2008 2018 2020 1020	RAW FFFF,FFFF,FFFF,FFFF,FFFF,FFFF,6BFF,2008,2018,2020,1020
002CC7	FF73 FFFF FFFF FFFF B5FF 2010 2020 2020 2020 2020 3110 FFE6	RAW FF73,FFFF,FFFF,FFFF,B5FF,2010,2020,2020,2020,2020,3110,FFE6
002CD3	FFFF 6BFF 2010 1020 FF83 C6FF 2010 2020 2020 1820 EE18 FFFF	RAW FFFF,6BFF,2010,1020,FF83,C6FF,2010,2020,2020,1820,EE18,FFFF
002CDF	FFFF FFFF 31E6 2018 1820 FF31 FFFF FFFF FEFF 9898 FFFD	RAW FFFF,FFFF,31E6,2018,1820,FF31,FFFF,FFFF,FEFF,9898,FFFD
002CEA	FFFF FFFF FFFF D1FF D8C8 E8E0 E0E0 B0D0 FFFD FFFF	RAW FFFF,FFFF,FFFF,D1FF,D8C8,E8E0,E0E0,B0D0,FFFD,FFFF
002CF4	FFFF FFFF FFFF B8E4 D8D8 ECC0 FFFF D2FF D0C0 E0E0	RAW FFFF,FFFF,FFFF,B8E4,D8D8,ECC0,FFFF,D2FF,D0C0,E0E0
002CFE	E0E0 B8D0 FFFC FFFF 104A 2018 1820 2020 7B10 CEEF CECE	RAW E0E0,B8D0,FFFC,FFFF,104A,2018,1820,2020,7B10,CEEF,CECE
002D09	CECE CECE B5CE FFE7 31FF 2010 1820 2020 2020 2018 0818 BD7B	RAW CECE,CECE,B5CE,FFE7,31FF,2010,1820,2020,2020,2018,0818,BD7B
002D15	CECE CED6 C6C6 FFFF FFFF 42FF 1810 2020 2020 1020 E67B	RAW CECE,CED6,C6C6,FFFF,FFFF,42FF,1810,2020,2020,1020,E67B
002D20	B5CE FFDE FFFF E6FF 2008 2018 2020 2020 2020 1820 8410 FF9C	RAW B5CE,FFDE,FFFF,E6FF,2008,2018,2020,2020,2020,1820,8410,FF9C
002D2C	20FF 2018 1028 FFC5 B5FF 2008 2020 2018 1818 CE31 CED6 D6CE	RAW 20FF,2018,1028,FFC5,B5FF,2008,2020,2018,1818,CE31,CED6,D6CE
002D38	8CCE 1818 2020 1020 FF83 FFFF FFFF DBFF F498 FFFF FFFF	RAW 8CCE,1818,2020,1020,FF83,FFFF,FFFF,DBFF,F498,FFFF,FFFF
002D43	FFFF FFFF FCFF D0B0 E0E8 E0E8 A8D0 FFFE FFFF FFFF	RAW FFFF,FFFF,FCFF,D0B0,E0E8,E0E8,A8D0,FFFE,FFFF,FFFF
002D4D	FFFF FFFF B0FE E0D0 FDB8 FFFF FCFF D8B0 E0E8 E0E8	RAW FFFF,FFFF,B0FE,E0D0,FDB8,FFFF,FCFF,D8B0,E0E8,E0E8
002D57	B0D0 FFFE FFFF 009C 2020 2020 1820 1818 1008 0810 0810 1010 0008	RAW B0D0,FFFE,FFFF,009C,2020,2020,1820,1818,1008,0810,0810,1010,0008
002D64	FFE7 B5FF 1800 2020 2020 2018 1820 2020 1010 1010 0808 4A00 FFFF	RAW FFE7,B5FF,1800,2020,2020,2018,1820,2020,1010,1010,0808,4A00,FFFF
002D71	FFFF ADFF 1000 1818 2018 2018 0820 0008 FFD6 FFFF FFFF 008C	RAW FFFF,ADFF,1000,1818,2018,2018,0820,0008,FFD6,FFFF,FFFF,008C
002D7D	2018 2020 2020 2018 1820 1020 FF00 10DE 2020 2018 FFFF E7FF 1010	RAW 2018,2020,2020,2018,1820,1020,FF00,10DE,2020,2018,FFFF,E7FF,1010
002D8A	2018 2018 1820 1020 1010 0808 1810 2018 2020 1020 FFBD FFFF FFFF	RAW 2018,2018,1820,1020,1010,0808,1810,2018,2020,1020,FFBD,FFFF,FFFF
002D97	91FD FFEB FFFF FFFF FFFF FFFF FFFF B0D3 C8B8 C8C0	RAW 91FD,FFEB,FFFF,FFFF,FFFF,FFFF,FFFF,B0D3,C8B8,C8C0
002DA1	C2B0 FFFF FFFF FFFF FFFF FFFF FCFF B8A8 FFB1 FFFF	RAW C2B0,FFFF,FFFF,FFFF,FFFF,FFFF,FCFF,B8A8,FFB1,FFFF
002DAB	FFFF B0EB C0C0 B8C0 B2B0 FFFF FFFF 73FF 1818 1818 1818	RAW FFFF,B0EB,C0C0,B8C0,B2B0,FFFF,FFFF,73FF,1818,1818,1818
002DB6	1018 1018 1810 1818 1010 BD00 FFFF FFFF 108C 1810 1818 1818 1818	RAW 1018,1018,1810,1818,1010,BD00,FFFF,FFFF,108C,1810,1818,1818,1818
002DC3	1018 1818 1010 0810 EF10 FFFF FFFF FFFF 207B 1010 1818 1820	RAW 1018,1818,1010,0810,EF10,FFFF,FFFF,FFFF,207B,1010,1818,1820
002DCF	1010 A500 FFFF FFFF FFFF 5AFF 1010 1818 1818 1818 1010 0810	RAW 1010,A500,FFFF,FFFF,FFFF,5AFF,1010,1818,1818,1818,1010,0810
002DDB	FFB5 088C 2020 6310 FFFF FFFF 20C5 1010 1818 1818 1018 1810	RAW FFB5,088C,2020,6310,FFFF,FFFF,20C5,1010,1818,1818,1018,1810
002DE7	1810 1818 1818 1818 1010 FFEF FFFF FFFF BA89 FFFF FFFF	RAW 1810,1818,1818,1818,1010,FFEF,FFFF,FFFF,BA89,FFFF,FFFF
002DF2	FFFF FFFF FFFF FFFF FEFF FDFD FDFD FEE4 FFFF FFFF	RAW FFFF,FFFF,FFFF,FFFF,FEFF,FDFD,FDFD,FEE4,FFFF,FFFF
002DFC	FFFF FFFF FFFF FFFF FDFF FFFE FFFF FFFF FEFF FDFD	RAW FFFF,FFFF,FFFF,FFFF,FDFF,FFFE,FFFF,FFFF,FEFF,FDFD
002E06	FDFD F6ED FFFF FFFF FFFF CEEF BDB5 B5B5 B5B5 B5B5	RAW FDFD,F6ED,FFFF,FFFF,FFFF,CEEF,BDB5,B5B5,B5B5,B5B5
002E10	B5B5 BDB5 B5B5 FFDE FFFF FFFF E6FF B5B5 B5B5 B5B5	RAW B5B5,BDB5,B5B5,FFDE,FFFF,FFFF,E6FF,B5B5,B5B5,B5B5
002E1A	B5B5 B5B5 B5B5 B5B5 BDAD FFEF FFFF FFFF FFFF EFFF	RAW B5B5,B5B5,B5B5,B5B5,BDAD,FFEF,FFFF,FFFF,FFFF,EFFF
002E24	B5CE BDB5 B5B5 B5B5 FFD6 FFFF FFFF FFFF FFFF ADD6	RAW B5CE,BDB5,B5B5,B5B5,FFD6,FFFF,FFFF,FFFF,FFFF,ADD6
002E2E	B5B5 B5B5 B5B5 B5B5 E7B5 FFFF 1831 2018 B508 FFFF FFFF	RAW B5B5,B5B5,B5B5,B5B5,E7B5,FFFF,1831,2018,B508,FFFF,FFFF
002E39	F7FF B5CE B5B5 BDB5 B5B5 B5B5 B5B5 B5B5 B5B5 B5B5	RAW F7FF,B5CE,B5B5,BDB5,B5B5,B5B5,B5B5,B5B5,B5B5,B5B5
002E43	C6AD FFFF FFFF D3FF FFA9 FFFF FFFF FFFF FFFF FFFF	RAW C6AD,FFFF,FFFF,D3FF,FFA9,FFFF,FFFF,FFFF,FFFF,FFFF
002E4D	FFFF FFFF FFFF FFFF FFFF FFFF FFFF FFFF FFFF FFFF	RAW FFFF,FFFF,FFFF,FFFF,FFFF,FFFF,FFFF,FFFF,FFFF,FFFF
002E57	FFFF FFFF FFFF FFFF FFF7 FFFF FFFF FFFF FFFF FFFF	RAW FFFF,FFFF,FFFF,FFFF,FFF7,FFFF,FFFF,FFFF,FFFF,FFFF
002E61	FFFF FFFF FFFF FFFF FFFF FFFF FFFF FFFF FFFF FFFF	RAW FFFF,FFFF,FFFF,FFFF,FFFF,FFFF,FFFF,FFFF,FFFF,FFFF
002E6B	FFFF FFFF FFFF FFFF FFFF FFFF FFFF FFFF FFFF FFFF	RAW FFFF,FFFF,FFFF,FFFF,FFFF,FFFF,FFFF,FFFF,FFFF,FFFF
002E75	FFFF FFFF FFFF FFFF FFFF FFFF FFFF FFFF FFFF FFFF	RAW FFFF,FFFF,FFFF,FFFF,FFFF,FFFF,FFFF,FFFF,FFFF,FFFF
002E7F	FFFF FFFF FFFF FFFF FFFF FFFF FFFF FFFF FFFF FFFF	RAW FFFF,FFFF,FFFF,FFFF,FFFF,FFFF,FFFF,FFFF,FFFF,FFFF
002E89	FFFF FFFF CEFF 1818 1820 E718 FFFF FFFF FFFF FFFF FFFF	RAW FFFF,FFFF,CEFF,1818,1820,E718,FFFF,FFFF,FFFF,FFFF,FFFF
002E94	FFFF FFFF FFFF FFFF FFFF FFFF FFFF FFFF FFFF FFFF	RAW FFFF,FFFF,FFFF,FFFF,FFFF,FFFF,FFFF,FFFF,FFFF,FFFF
002E9E	9AE5 FFFF FFFF FFFF FFFF FFFF FFFF FFFF FFFF FFFF	RAW 9AE5,FFFF,FFFF,FFFF,FFFF,FFFF,FFFF,FFFF,FFFF,FFFF
002EA8	FFFF FFFF FFFF FFFF FFFF FFFF FFFF FFFF FFFF FFFF	RAW FFFF,FFFF,FFFF,FFFF,FFFF,FFFF,FFFF,FFFF,FFFF,FFFF
002EB2	FFFF FFFF FFFF FFFF FFFF FFFF FFFF FFFF FFFF FFFF	RAW FFFF,FFFF,FFFF,FFFF,FFFF,FFFF,FFFF,FFFF,FFFF,FFFF
002EBC	FFFF FFFF FFFF FFFF FFFF FFFF FFFF FFFF FFFF FFFF	RAW FFFF,FFFF,FFFF,FFFF,FFFF,FFFF,FFFF,FFFF,FFFF,FFFF
002EC6	FFFF FFFF FFFF FFFF FFFF FFFF FFFF FFFF FFFF FFFF	RAW FFFF,FFFF,FFFF,FFFF,FFFF,FFFF,FFFF,FFFF,FFFF,FFFF
002ED0	FFFF FFFF FFFF FFFF FFFF FFFF FFFF FFF7 FFFF FFFF	RAW FFFF,FFFF,FFFF,FFFF,FFFF,FFFF,FFFF,FFF7,FFFF,FFFF
002EDA	FFFF FFFF FFFF FFFF FFFF FFFF FFFF FFFF FFFF 8CFF	RAW FFFF,FFFF,FFFF,FFFF,FFFF,FFFF,FFFF,FFFF,FFFF,8CFF
002EE4	1808 1018 FF52 FFFF FFFF FFFF FFFF FFFF FFFF FFFF FFFF	RAW 1808,1018,FF52,FFFF,FFFF,FFFF,FFFF,FFFF,FFFF,FFFF,FFFF
002EEF	FFFF FFFF FFFF FFFF FFFF FFFF FEFF FFA3 FFFF FFFF	RAW FFFF,FFFF,FFFF,FFFF,FFFF,FFFF,FEFF,FFA3,FFFF,FFFF
002EF9	FFFF FFFF FFFF FFFF FFFF FFFF FFF7 FFFF FFFF FFFF	RAW FFFF,FFFF,FFFF,FFFF,FFFF,FFFF,FFF7,FFFF,FFFF,FFFF
002F03	FFFF FFFF FFFF FFFF FFFF FFFF FFFF FFFF FFFF FFFF	RAW FFFF,FFFF,FFFF,FFFF,FFFF,FFFF,FFFF,FFFF,FFFF,FFFF
002F0D	FFFF FFFF FFFF FFFF FFFF FFFF FFFF FFFF FFFF FFFF	RAW FFFF,FFFF,FFFF,FFFF,FFFF,FFFF,FFFF,FFFF,FFFF,FFFF
002F17	FFFF FFFF FFFF FFFF FFFF FFFF FFFF FFFF FFFF FFFF	RAW FFFF,FFFF,FFFF,FFFF,FFFF,FFFF,FFFF,FFFF,FFFF,FFFF
002F21	FFFF FFFF FFFF FFFF FFFF FFFF FFFF FFFF FFFF FFFF	RAW FFFF,FFFF,FFFF,FFFF,FFFF,FFFF,FFFF,FFFF,FFFF,FFFF
002F2B	FFFF FFFF FFFF FFFF FFFF FFFF FFF7 FFFF FFFF FFFF	RAW FFFF,FFFF,FFFF,FFFF,FFFF,FFFF,FFF7,FFFF,FFFF,FFFF
002F35	FFFF FFFF FFFF FFFF FFFF FFFF 4AFF 2010 0820 FFA5 FFFF	RAW FFFF,FFFF,FFFF,FFFF,FFFF,FFFF,4AFF,2010,0820,FFA5,FFFF
002F40	FFFF FFFF FFFF FFFF FFFF FFFF FFFF FFFF FFFF FFFF	RAW FFFF,FFFF,FFFF,FFFF,FFFF,FFFF,FFFF,FFFF,FFFF,FFFF
002F4A	FFFF FFFF FFFF D5FF FFFF FFFF FFFF FFFF FFFF FFFF	RAW FFFF,FFFF,FFFF,D5FF,FFFF,FFFF,FFFF,FFFF,FFFF,FFFF
002F54	FFFF FFFF FFFF FFFF FFFF FFFF FFFF FFFF FFFF FFFF	RAW FFFF,FFFF,FFFF,FFFF,FFFF,FFFF,FFFF,FFFF,FFFF,FFFF
002F5E	FFFF FFFF FFFF FFFF FFFF FFFF FFFF FFFF FFFF FFFF	RAW FFFF,FFFF,FFFF,FFFF,FFFF,FFFF,FFFF,FFFF,FFFF,FFFF
002F68	FFFF FFFF FFFF FFFF FFFF FFFF FFFF F7FF FFFF FFFF	RAW FFFF,FFFF,FFFF,FFFF,FFFF,FFFF,FFFF,F7FF,FFFF,FFFF
002F72	FFFF FFFF FFFF FFFF FFFF FFFF FFFF FFFF FFFF FFFF	RAW FFFF,FFFF,FFFF,FFFF,FFFF,FFFF,FFFF,FFFF,FFFF,FFFF
002F7C	FFFF FFFF FFFF FFFF FFFF FFFF FFFF FFFF FFFF FFFF	RAW FFFF,FFFF,FFFF,FFFF,FFFF,FFFF,FFFF,FFFF,FFFF,FFFF
002F86	FFFF FFFF FFFF FFFF FFFF FFFF FFFF FFFF FFFF FFFF	RAW FFFF,FFFF,FFFF,FFFF,FFFF,FFFF,FFFF,FFFF,FFFF,FFFF
002F90	FFFF FFFF FFFF 10DE 1818 1020 FFDE FFFF FFFF FFFF FFFF	RAW FFFF,FFFF,FFFF,10DE,1818,1020,FFDE,FFFF,FFFF,FFFF,FFFF
002F9B	FFFF FFFF FFFF FFFF FFFF FFFF FFFF FFFF FFFF FFFF	RAW FFFF,FFFF,FFFF,FFFF,FFFF,FFFF,FFFF,FFFF,FFFF,FFFF
002FA5	FFE6 FFFF FFFF FFFF FFFF FFFF FFFF FFFF FFFF FFFF	RAW FFE6,FFFF,FFFF,FFFF,FFFF,FFFF,FFFF,FFFF,FFFF,FFFF
002FAF	FFFF FFFF FFFF FFFF FFFF FFFF FFFF FFFF FFFF F7FF	RAW FFFF,FFFF,FFFF,FFFF,FFFF,FFFF,FFFF,FFFF,FFFF,F7FF
002FB9	FFFF FFFF FFFF FFFF FFFF FFFF FFFF FFFF FFFF FFFF	RAW FFFF,FFFF,FFFF,FFFF,FFFF,FFFF,FFFF,FFFF,FFFF,FFFF
002FC3	FFFF FFFF FFFF FFFF FFFF FFFF FFFF FFFF FFFF FFFF	RAW FFFF,FFFF,FFFF,FFFF,FFFF,FFFF,FFFF,FFFF,FFFF,FFFF
002FCD	FFFF FFFF FFFF FFFF FFFF FFFF FFFF FFFF FFFF FFFF	RAW FFFF,FFFF,FFFF,FFFF,FFFF,FFFF,FFFF,FFFF,FFFF,FFFF
002FD7	FFFF F7FF FFFF FFFF FFFF FFFF FFFF FFFF FFFF FFFF	RAW FFFF,F7FF,FFFF,FFFF,FFFF,FFFF,FFFF,FFFF,FFFF,FFFF
002FE1	FFFF FFFF FFFF FFFF FFFF FFFF FFFF FFFF FFFF FFFF	RAW FFFF,FFFF,FFFF,FFFF,FFFF,FFFF,FFFF,FFFF,FFFF,FFFF
002FEB	109C 2020 3910 FFFF FFFF FFFF FFFF FFFF FFFF FFFF FFFF	RAW 109C,2020,3910,FFFF,FFFF,FFFF,FFFF,FFFF,FFFF,FFFF,FFFF
002FF6	FFFF FFFF FFFF FFFF FFFF FFFF FFFF FFFF FFFF FFFF	RAW FFFF,FFFF,FFFF,FFFF,FFFF,FFFF,FFFF,FFFF,FFFF,FFFF
003000	FFFF FFFF FFFF FFFF FFFF FFFF FFFF FFFF FFFF FFFF	RAW FFFF,FFFF,FFFF,FFFF,FFFF,FFFF,FFFF,FFFF,FFFF,FFFF
00300A	FFFF FFFF FFFF FFFF FFFF FFFF FFFF FFFF FFFF FFFF	RAW FFFF,FFFF,FFFF,FFFF,FFFF,FFFF,FFFF,FFFF,FFFF,FFFF
003014	FFFF FFFF FFFF FFFF FFFF FFFF FFFF FFFF FFFF FFFF	RAW FFFF,FFFF,FFFF,FFFF,FFFF,FFFF,FFFF,FFFF,FFFF,FFFF
00301E	FFFF FFFF FFFF FFFF FFFF FFFF FFFF FFFF FFFF FFFF	RAW FFFF,FFFF,FFFF,FFFF,FFFF,FFFF,FFFF,FFFF,FFFF,FFFF
003028	FFFF FFFF FFFF FFFF FFFF FFFF FFFF FFFF FFFF FFFF	RAW FFFF,FFFF,FFFF,FFFF,FFFF,FFFF,FFFF,FFFF,FFFF,FFFF
003032	FFFF FFFF FFFF FFFF FFFF FFFF FFFF FFFF FFFF FFFF	RAW FFFF,FFFF,FFFF,FFFF,FFFF,FFFF,FFFF,FFFF,FFFF,FFFF
00303C	8CFF 5220 5A5A 6262 525A 4A4A 5252 2029 2020 A408 FFFF FFFF	RAW 8CFF,5220,5A5A,6262,525A,4A4A,5252,2029,2020,A408,FFFF,FFFF
003048	FFFF FFFF FFFF FFFF FFFF FFFF FFFF FFFF FFFF FFFF	RAW FFFF,FFFF,FFFF,FFFF,FFFF,FFFF,FFFF,FFFF,FFFF,FFFF
003052	FFFF FFFF FFFF FFFF FFFF FFFF FFFF FFFF FFFF FFFF	RAW FFFF,FFFF,FFFF,FFFF,FFFF,FFFF,FFFF,FFFF,FFFF,FFFF
00305C	FFFF FFFF FFFF FFFF FFFF FFFF FFFF FFFF FFFF FFFF	RAW FFFF,FFFF,FFFF,FFFF,FFFF,FFFF,FFFF,FFFF,FFFF,FFFF
003066	FFFF FFFF FFFF FFFF FFFF FFFF FFFF FFFF FFFF FFFF	RAW FFFF,FFFF,FFFF,FFFF,FFFF,FFFF,FFFF,FFFF,FFFF,FFFF
003070	FFFF FFFF FFFF FFFF FFFF FFFF FFFF FFFF FFFF FFFF	RAW FFFF,FFFF,FFFF,FFFF,FFFF,FFFF,FFFF,FFFF,FFFF,FFFF
00307A	FFFF FFFF FFFF FFFF FFFF FFFF FFFF FFFF FFFF FFFF	RAW FFFF,FFFF,FFFF,FFFF,FFFF,FFFF,FFFF,FFFF,FFFF,FFFF
003084	FFFF FFFF FFFF FFFF FFFF FFFF FFFF FFFF FFFF FFFF	RAW FFFF,FFFF,FFFF,FFFF,FFFF,FFFF,FFFF,FFFF,FFFF,FFFF
00308E	FFFF FFFF FFFF FFFF FFF7 FFFF A5FF 1000 0810 0808 1810 2020	RAW FFFF,FFFF,FFFF,FFFF,FFF7,FFFF,A5FF,1000,0810,0808,1810,2020
00309A	2020 2018 0818 FF6A FFFF FFFF FFFF FFFF FFFF FFFF FFFF	RAW 2020,2018,0818,FF6A,FFFF,FFFF,FFFF,FFFF,FFFF,FFFF,FFFF
0030A5	FFFF FFFF FFFF FFFF FFFF FFFF FFFF FFFF FFFF FFFF	RAW FFFF,FFFF,FFFF,FFFF,FFFF,FFFF,FFFF,FFFF,FFFF,FFFF
0030AF	FFFF FFFF FFFF FFFF FFFF FFFF FFFF FFFF FFFF FFFF	RAW FFFF,FFFF,FFFF,FFFF,FFFF,FFFF,FFFF,FFFF,FFFF,FFFF
0030B9	FFFF FFFF FFFF FFFF FFF7 FFFF FFFF FFFF FFFF FFFF	RAW FFFF,FFFF,FFFF,FFFF,FFF7,FFFF,FFFF,FFFF,FFFF,FFFF
0030C3	FFFF FFFF FFFF FFFF FFFF FFFF FFFF FFFF FFFF FFFF	RAW FFFF,FFFF,FFFF,FFFF,FFFF,FFFF,FFFF,FFFF,FFFF,FFFF
0030CD	FFFF FFFF FFFF FFFF FFFF FFFF FFFF FFFF FFFF FFFF	RAW FFFF,FFFF,FFFF,FFFF,FFFF,FFFF,FFFF,FFFF,FFFF,FFFF
0030D7	FFFF FFFF FFFF FFFF FFFF FFFF FFF7 FFFF FFFF FFFF	RAW FFFF,FFFF,FFFF,FFFF,FFFF,FFFF,FFF7,FFFF,FFFF,FFFF
0030E1	FFFF FFFF FFFF FFFF FFFF FFFF FFFF FFFF FFFF FFFF	RAW FFFF,FFFF,FFFF,FFFF,FFFF,FFFF,FFFF,FFFF,FFFF,FFFF
0030EB	FFFF FFFF 086B 1818 1818 1818 1818 1818 1018 7318 FFFF FFFF	RAW FFFF,FFFF,086B,1818,1818,1818,1818,1818,1018,7318,FFFF,FFFF
0030F7	FFFF FFFF FFFF FFFF FFFF FFFF FFFF FFFF FFFF FFFF	RAW FFFF,FFFF,FFFF,FFFF,FFFF,FFFF,FFFF,FFFF,FFFF,FFFF
003101	FFFF FFFF FFFF FFFF FFFF FFFF FFFF FFFF FFFF FFFF	RAW FFFF,FFFF,FFFF,FFFF,FFFF,FFFF,FFFF,FFFF,FFFF,FFFF
00310B	FFFF FFFF FFFF FFFF FFFF FFFF FFFF FFFF FFFF F7FF	RAW FFFF,FFFF,FFFF,FFFF,FFFF,FFFF,FFFF,FFFF,FFFF,F7FF
003115	FFFF FFFF FFFF FFFF FFFF FFFF FFFF FFFF FFFF FFFF	RAW FFFF,FFFF,FFFF,FFFF,FFFF,FFFF,FFFF,FFFF,FFFF,FFFF
00311F	FFFF FFFF FFFF FFFF FFFF FFFF FFFF FFFF FFFF FFFF	RAW FFFF,FFFF,FFFF,FFFF,FFFF,FFFF,FFFF,FFFF,FFFF,FFFF
003129	FFFF FFFF FFFF FFFF FFFF FFFF FFFF FFFF FFFF FFFF	RAW FFFF,FFFF,FFFF,FFFF,FFFF,FFFF,FFFF,FFFF,FFFF,FFFF
003133	FFFF F7FF FFFF FFFF FFFF FFFF FFFF FFFF FFFF FFFF	RAW FFFF,F7FF,FFFF,FFFF,FFFF,FFFF,FFFF,FFFF,FFFF,FFFF
00313D	FFFF FFFF FFFF FFFF FFFF FFFF FFFF FFFF 83FF 2929	RAW FFFF,FFFF,FFFF,FFFF,FFFF,FFFF,FFFF,FFFF,83FF,2929
003147	3139 3139 3139 3931 8452 FFDE FFFF FFFF FFFF FFFF FFFF	RAW 3139,3139,3139,3931,8452,FFDE,FFFF,FFFF,FFFF,FFFF,FFFF
003152	FFFF FFFF FFFF FFFF FFFF FFFF FFFF FFFF FFFF FFFF	RAW FFFF,FFFF,FFFF,FFFF,FFFF,FFFF,FFFF,FFFF,FFFF,FFFF
00315C	FFFF FFFF FFFF FFFF FFFF FFFF FFFF FFFF FFFF 00FF	RAW FFFF,FFFF,FFFF,FFFF,FFFF,FFFF,FFFF,FFFF,FFFF,00FF


		TABLEIMAGE2
003166	30A0	CPI SYSSTRINGA, 0
003167	F010	BRLO PC + 3
003168	2400	CLR SYSBYTETEMPX
003169	9508	RET
00316A	EEE2	LDI SYSREADA, LOW(TABLETABLEIMAGE2<<1)
00316B	E6F2	LDI SYSREADA_H, HIGH(TABLETABLEIMAGE2<<1)
00316C	0FEA	ADD SYSREADA, SYSSTRINGA
00316D	F408	BRCC PC + 2
00316E	95F3	INC SYSREADA_H
00316F	95C8	LPM
003170	9508	RET
		TABLETABLEIMAGE2


		TABLEIMAGE3
003171	30A0	CPI SYSSTRINGA, 0
003172	F010	BRLO PC + 3
003173	2400	CLR SYSBYTETEMPX
003174	9508	RET
003175	EFE8	LDI SYSREADA, LOW(TABLETABLEIMAGE3<<1)
003176	E6F2	LDI SYSREADA_H, HIGH(TABLETABLEIMAGE3<<1)
003177	0FEA	ADD SYSREADA, SYSSTRINGA
003178	F408	BRCC PC + 2
003179	95F3	INC SYSREADA_H
00317A	95C8	LPM
00317B	9508	RET
		TABLETABLEIMAGE3


		TABLEIMAGE4
00317C	30A0	CPI SYSSTRINGA, 0
00317D	F010	BRLO PC + 3
00317E	2400	CLR SYSBYTETEMPX
00317F	9508	RET
003180	E0EE	LDI SYSREADA, LOW(TABLETABLEIMAGE4<<1)
003181	E6F3	LDI SYSREADA_H, HIGH(TABLETABLEIMAGE4<<1)
003182	0FEA	ADD SYSREADA, SYSSTRINGA
003183	F408	BRCC PC + 2
003184	95F3	INC SYSREADA_H
003185	95C8	LPM
003186	9508	RET
		TABLETABLEIMAGE4


		TABLEIMAGE5
003187	30A0	CPI SYSSTRINGA, 0
003188	F010	BRLO PC + 3
003189	2400	CLR SYSBYTETEMPX
00318A	9508	RET
00318B	E2E4	LDI SYSREADA, LOW(TABLETABLEIMAGE5<<1)
00318C	E6F3	LDI SYSREADA_H, HIGH(TABLETABLEIMAGE5<<1)
00318D	0FEA	ADD SYSREADA, SYSSTRINGA
00318E	F408	BRCC PC + 2
00318F	95F3	INC SYSREADA_H
003190	95C8	LPM
003191	9508	RET
		TABLETABLEIMAGE5


